	.cpu cortex-m4
	.arch armv7e-m
	.fpu fpv4-sp-d16
	.eabi_attribute 27, 1
	.eabi_attribute 28, 1
	.eabi_attribute 20, 1
	.eabi_attribute 21, 1
	.eabi_attribute 23, 3
	.eabi_attribute 24, 1
	.eabi_attribute 25, 1
	.eabi_attribute 26, 1
	.eabi_attribute 30, 6
	.eabi_attribute 34, 1
	.eabi_attribute 38, 1
	.eabi_attribute 18, 4
	.file	"ble_conn_state.c"
	.text
.Ltext0:
	.section	.text.sd_ble_gap_addr_set,"ax",%progbits
	.align	1
	.syntax unified
	.thumb
	.thumb_func
	.type	sd_ble_gap_addr_set, %function
sd_ble_gap_addr_set:
.LFB11:
	.file 1 "../../../../../../components/softdevice/s132/headers/ble_gap.h"
	.loc 1 1636 1
	@ Naked Function: prologue and epilogue provided by programmer.
	@ args = 0, pretend = 0, frame = 0
	@ frame_needed = 0, uses_anonymous_args = 0
	.loc 1 1636 1
	.syntax unified
@ 1636 "../../../../../../components/softdevice/s132/headers/ble_gap.h" 1
	svc #108
bx r14
@ 0 "" 2
	.thumb
	.syntax unified
	nop
	mov	r0, r3
.LFE11:
	.size	sd_ble_gap_addr_set, .-sd_ble_gap_addr_set
	.section	.text.sd_ble_gap_addr_get,"ax",%progbits
	.align	1
	.syntax unified
	.thumb
	.thumb_func
	.type	sd_ble_gap_addr_get, %function
sd_ble_gap_addr_get:
.LFB12:
	.loc 1 1649 1
	@ Naked Function: prologue and epilogue provided by programmer.
	@ args = 0, pretend = 0, frame = 0
	@ frame_needed = 0, uses_anonymous_args = 0
	.loc 1 1649 1
	.syntax unified
@ 1649 "../../../../../../components/softdevice/s132/headers/ble_gap.h" 1
	svc #109
bx r14
@ 0 "" 2
	.thumb
	.syntax unified
	nop
	mov	r0, r3
.LFE12:
	.size	sd_ble_gap_addr_get, .-sd_ble_gap_addr_get
	.section	.text.sd_ble_gap_whitelist_set,"ax",%progbits
	.align	1
	.syntax unified
	.thumb
	.thumb_func
	.type	sd_ble_gap_whitelist_set, %function
sd_ble_gap_whitelist_set:
.LFB13:
	.loc 1 1675 1
	@ Naked Function: prologue and epilogue provided by programmer.
	@ args = 0, pretend = 0, frame = 0
	@ frame_needed = 0, uses_anonymous_args = 0
	.loc 1 1675 1
	.syntax unified
@ 1675 "../../../../../../components/softdevice/s132/headers/ble_gap.h" 1
	svc #110
bx r14
@ 0 "" 2
	.thumb
	.syntax unified
	nop
	mov	r0, r3
.LFE13:
	.size	sd_ble_gap_whitelist_set, .-sd_ble_gap_whitelist_set
	.section	.text.sd_ble_gap_device_identities_set,"ax",%progbits
	.align	1
	.syntax unified
	.thumb
	.thumb_func
	.type	sd_ble_gap_device_identities_set, %function
sd_ble_gap_device_identities_set:
.LFB14:
	.loc 1 1706 1
	@ Naked Function: prologue and epilogue provided by programmer.
	@ args = 0, pretend = 0, frame = 0
	@ frame_needed = 0, uses_anonymous_args = 0
	.loc 1 1706 1
	.syntax unified
@ 1706 "../../../../../../components/softdevice/s132/headers/ble_gap.h" 1
	svc #111
bx r14
@ 0 "" 2
	.thumb
	.syntax unified
	nop
	mov	r0, r3
.LFE14:
	.size	sd_ble_gap_device_identities_set, .-sd_ble_gap_device_identities_set
	.section	.text.sd_ble_gap_privacy_set,"ax",%progbits
	.align	1
	.syntax unified
	.thumb
	.thumb_func
	.type	sd_ble_gap_privacy_set, %function
sd_ble_gap_privacy_set:
.LFB15:
	.loc 1 1730 1
	@ Naked Function: prologue and epilogue provided by programmer.
	@ args = 0, pretend = 0, frame = 0
	@ frame_needed = 0, uses_anonymous_args = 0
	.loc 1 1730 1
	.syntax unified
@ 1730 "../../../../../../components/softdevice/s132/headers/ble_gap.h" 1
	svc #112
bx r14
@ 0 "" 2
	.thumb
	.syntax unified
	nop
	mov	r0, r3
.LFE15:
	.size	sd_ble_gap_privacy_set, .-sd_ble_gap_privacy_set
	.section	.text.sd_ble_gap_privacy_get,"ax",%progbits
	.align	1
	.syntax unified
	.thumb
	.thumb_func
	.type	sd_ble_gap_privacy_get, %function
sd_ble_gap_privacy_get:
.LFB16:
	.loc 1 1744 1
	@ Naked Function: prologue and epilogue provided by programmer.
	@ args = 0, pretend = 0, frame = 0
	@ frame_needed = 0, uses_anonymous_args = 0
	.loc 1 1744 1
	.syntax unified
@ 1744 "../../../../../../components/softdevice/s132/headers/ble_gap.h" 1
	svc #113
bx r14
@ 0 "" 2
	.thumb
	.syntax unified
	nop
	mov	r0, r3
.LFE16:
	.size	sd_ble_gap_privacy_get, .-sd_ble_gap_privacy_get
	.section	.text.sd_ble_gap_adv_set_configure,"ax",%progbits
	.align	1
	.syntax unified
	.thumb
	.thumb_func
	.type	sd_ble_gap_adv_set_configure, %function
sd_ble_gap_adv_set_configure:
.LFB17:
	.loc 1 1791 1
	@ Naked Function: prologue and epilogue provided by programmer.
	@ args = 0, pretend = 0, frame = 0
	@ frame_needed = 0, uses_anonymous_args = 0
	.loc 1 1791 1
	.syntax unified
@ 1791 "../../../../../../components/softdevice/s132/headers/ble_gap.h" 1
	svc #114
bx r14
@ 0 "" 2
	.thumb
	.syntax unified
	nop
	mov	r0, r3
.LFE17:
	.size	sd_ble_gap_adv_set_configure, .-sd_ble_gap_adv_set_configure
	.section	.text.sd_ble_gap_adv_start,"ax",%progbits
	.align	1
	.syntax unified
	.thumb
	.thumb_func
	.type	sd_ble_gap_adv_start, %function
sd_ble_gap_adv_start:
.LFB18:
	.loc 1 1835 1
	@ Naked Function: prologue and epilogue provided by programmer.
	@ args = 0, pretend = 0, frame = 0
	@ frame_needed = 0, uses_anonymous_args = 0
	.loc 1 1835 1
	.syntax unified
@ 1835 "../../../../../../components/softdevice/s132/headers/ble_gap.h" 1
	svc #115
bx r14
@ 0 "" 2
	.thumb
	.syntax unified
	nop
	mov	r0, r3
.LFE18:
	.size	sd_ble_gap_adv_start, .-sd_ble_gap_adv_start
	.section	.text.sd_ble_gap_adv_stop,"ax",%progbits
	.align	1
	.syntax unified
	.thumb
	.thumb_func
	.type	sd_ble_gap_adv_stop, %function
sd_ble_gap_adv_stop:
.LFB19:
	.loc 1 1851 1
	@ Naked Function: prologue and epilogue provided by programmer.
	@ args = 0, pretend = 0, frame = 0
	@ frame_needed = 0, uses_anonymous_args = 0
	.loc 1 1851 1
	.syntax unified
@ 1851 "../../../../../../components/softdevice/s132/headers/ble_gap.h" 1
	svc #116
bx r14
@ 0 "" 2
	.thumb
	.syntax unified
	nop
	mov	r0, r3
.LFE19:
	.size	sd_ble_gap_adv_stop, .-sd_ble_gap_adv_stop
	.section	.text.sd_ble_gap_conn_param_update,"ax",%progbits
	.align	1
	.syntax unified
	.thumb
	.thumb_func
	.type	sd_ble_gap_conn_param_update, %function
sd_ble_gap_conn_param_update:
.LFB20:
	.loc 1 1889 1
	@ Naked Function: prologue and epilogue provided by programmer.
	@ args = 0, pretend = 0, frame = 0
	@ frame_needed = 0, uses_anonymous_args = 0
	.loc 1 1889 1
	.syntax unified
@ 1889 "../../../../../../components/softdevice/s132/headers/ble_gap.h" 1
	svc #117
bx r14
@ 0 "" 2
	.thumb
	.syntax unified
	nop
	mov	r0, r3
.LFE20:
	.size	sd_ble_gap_conn_param_update, .-sd_ble_gap_conn_param_update
	.section	.text.sd_ble_gap_disconnect,"ax",%progbits
	.align	1
	.syntax unified
	.thumb
	.thumb_func
	.type	sd_ble_gap_disconnect, %function
sd_ble_gap_disconnect:
.LFB21:
	.loc 1 1913 1
	@ Naked Function: prologue and epilogue provided by programmer.
	@ args = 0, pretend = 0, frame = 0
	@ frame_needed = 0, uses_anonymous_args = 0
	.loc 1 1913 1
	.syntax unified
@ 1913 "../../../../../../components/softdevice/s132/headers/ble_gap.h" 1
	svc #118
bx r14
@ 0 "" 2
	.thumb
	.syntax unified
	nop
	mov	r0, r3
.LFE21:
	.size	sd_ble_gap_disconnect, .-sd_ble_gap_disconnect
	.section	.text.sd_ble_gap_tx_power_set,"ax",%progbits
	.align	1
	.syntax unified
	.thumb
	.thumb_func
	.type	sd_ble_gap_tx_power_set, %function
sd_ble_gap_tx_power_set:
.LFB22:
	.loc 1 1938 1
	@ Naked Function: prologue and epilogue provided by programmer.
	@ args = 0, pretend = 0, frame = 0
	@ frame_needed = 0, uses_anonymous_args = 0
	.loc 1 1938 1
	.syntax unified
@ 1938 "../../../../../../components/softdevice/s132/headers/ble_gap.h" 1
	svc #119
bx r14
@ 0 "" 2
	.thumb
	.syntax unified
	nop
	mov	r0, r3
.LFE22:
	.size	sd_ble_gap_tx_power_set, .-sd_ble_gap_tx_power_set
	.section	.text.sd_ble_gap_appearance_set,"ax",%progbits
	.align	1
	.syntax unified
	.thumb
	.thumb_func
	.type	sd_ble_gap_appearance_set, %function
sd_ble_gap_appearance_set:
.LFB23:
	.loc 1 1948 1
	@ Naked Function: prologue and epilogue provided by programmer.
	@ args = 0, pretend = 0, frame = 0
	@ frame_needed = 0, uses_anonymous_args = 0
	.loc 1 1948 1
	.syntax unified
@ 1948 "../../../../../../components/softdevice/s132/headers/ble_gap.h" 1
	svc #120
bx r14
@ 0 "" 2
	.thumb
	.syntax unified
	nop
	mov	r0, r3
.LFE23:
	.size	sd_ble_gap_appearance_set, .-sd_ble_gap_appearance_set
	.section	.text.sd_ble_gap_appearance_get,"ax",%progbits
	.align	1
	.syntax unified
	.thumb
	.thumb_func
	.type	sd_ble_gap_appearance_get, %function
sd_ble_gap_appearance_get:
.LFB24:
	.loc 1 1958 1
	@ Naked Function: prologue and epilogue provided by programmer.
	@ args = 0, pretend = 0, frame = 0
	@ frame_needed = 0, uses_anonymous_args = 0
	.loc 1 1958 1
	.syntax unified
@ 1958 "../../../../../../components/softdevice/s132/headers/ble_gap.h" 1
	svc #121
bx r14
@ 0 "" 2
	.thumb
	.syntax unified
	nop
	mov	r0, r3
.LFE24:
	.size	sd_ble_gap_appearance_get, .-sd_ble_gap_appearance_get
	.section	.text.sd_ble_gap_ppcp_set,"ax",%progbits
	.align	1
	.syntax unified
	.thumb
	.thumb_func
	.type	sd_ble_gap_ppcp_set, %function
sd_ble_gap_ppcp_set:
.LFB25:
	.loc 1 1969 1
	@ Naked Function: prologue and epilogue provided by programmer.
	@ args = 0, pretend = 0, frame = 0
	@ frame_needed = 0, uses_anonymous_args = 0
	.loc 1 1969 1
	.syntax unified
@ 1969 "../../../../../../components/softdevice/s132/headers/ble_gap.h" 1
	svc #122
bx r14
@ 0 "" 2
	.thumb
	.syntax unified
	nop
	mov	r0, r3
.LFE25:
	.size	sd_ble_gap_ppcp_set, .-sd_ble_gap_ppcp_set
	.section	.text.sd_ble_gap_ppcp_get,"ax",%progbits
	.align	1
	.syntax unified
	.thumb
	.thumb_func
	.type	sd_ble_gap_ppcp_get, %function
sd_ble_gap_ppcp_get:
.LFB26:
	.loc 1 1979 1
	@ Naked Function: prologue and epilogue provided by programmer.
	@ args = 0, pretend = 0, frame = 0
	@ frame_needed = 0, uses_anonymous_args = 0
	.loc 1 1979 1
	.syntax unified
@ 1979 "../../../../../../components/softdevice/s132/headers/ble_gap.h" 1
	svc #123
bx r14
@ 0 "" 2
	.thumb
	.syntax unified
	nop
	mov	r0, r3
.LFE26:
	.size	sd_ble_gap_ppcp_get, .-sd_ble_gap_ppcp_get
	.section	.text.sd_ble_gap_device_name_set,"ax",%progbits
	.align	1
	.syntax unified
	.thumb
	.thumb_func
	.type	sd_ble_gap_device_name_set, %function
sd_ble_gap_device_name_set:
.LFB27:
	.loc 1 1997 1
	@ Naked Function: prologue and epilogue provided by programmer.
	@ args = 0, pretend = 0, frame = 0
	@ frame_needed = 0, uses_anonymous_args = 0
	.loc 1 1997 1
	.syntax unified
@ 1997 "../../../../../../components/softdevice/s132/headers/ble_gap.h" 1
	svc #124
bx r14
@ 0 "" 2
	.thumb
	.syntax unified
	nop
	mov	r0, r3
.LFE27:
	.size	sd_ble_gap_device_name_set, .-sd_ble_gap_device_name_set
	.section	.text.sd_ble_gap_device_name_get,"ax",%progbits
	.align	1
	.syntax unified
	.thumb
	.thumb_func
	.type	sd_ble_gap_device_name_get, %function
sd_ble_gap_device_name_get:
.LFB28:
	.loc 1 2014 1
	@ Naked Function: prologue and epilogue provided by programmer.
	@ args = 0, pretend = 0, frame = 0
	@ frame_needed = 0, uses_anonymous_args = 0
	.loc 1 2014 1
	.syntax unified
@ 2014 "../../../../../../components/softdevice/s132/headers/ble_gap.h" 1
	svc #125
bx r14
@ 0 "" 2
	.thumb
	.syntax unified
	nop
	mov	r0, r3
.LFE28:
	.size	sd_ble_gap_device_name_get, .-sd_ble_gap_device_name_get
	.section	.text.sd_ble_gap_authenticate,"ax",%progbits
	.align	1
	.syntax unified
	.thumb
	.thumb_func
	.type	sd_ble_gap_authenticate, %function
sd_ble_gap_authenticate:
.LFB29:
	.loc 1 2064 1
	@ Naked Function: prologue and epilogue provided by programmer.
	@ args = 0, pretend = 0, frame = 0
	@ frame_needed = 0, uses_anonymous_args = 0
	.loc 1 2064 1
	.syntax unified
@ 2064 "../../../../../../components/softdevice/s132/headers/ble_gap.h" 1
	svc #126
bx r14
@ 0 "" 2
	.thumb
	.syntax unified
	nop
	mov	r0, r3
.LFE29:
	.size	sd_ble_gap_authenticate, .-sd_ble_gap_authenticate
	.section	.text.sd_ble_gap_sec_params_reply,"ax",%progbits
	.align	1
	.syntax unified
	.thumb
	.thumb_func
	.type	sd_ble_gap_sec_params_reply, %function
sd_ble_gap_sec_params_reply:
.LFB30:
	.loc 1 2123 1
	@ Naked Function: prologue and epilogue provided by programmer.
	@ args = 0, pretend = 0, frame = 0
	@ frame_needed = 0, uses_anonymous_args = 0
	.loc 1 2123 1
	.syntax unified
@ 2123 "../../../../../../components/softdevice/s132/headers/ble_gap.h" 1
	svc #127
bx r14
@ 0 "" 2
	.thumb
	.syntax unified
	nop
	mov	r0, r3
.LFE30:
	.size	sd_ble_gap_sec_params_reply, .-sd_ble_gap_sec_params_reply
	.section	.text.sd_ble_gap_auth_key_reply,"ax",%progbits
	.align	1
	.syntax unified
	.thumb
	.thumb_func
	.type	sd_ble_gap_auth_key_reply, %function
sd_ble_gap_auth_key_reply:
.LFB31:
	.loc 1 2157 1
	@ Naked Function: prologue and epilogue provided by programmer.
	@ args = 0, pretend = 0, frame = 0
	@ frame_needed = 0, uses_anonymous_args = 0
	.loc 1 2157 1
	.syntax unified
@ 2157 "../../../../../../components/softdevice/s132/headers/ble_gap.h" 1
	svc #128
bx r14
@ 0 "" 2
	.thumb
	.syntax unified
	nop
	mov	r0, r3
.LFE31:
	.size	sd_ble_gap_auth_key_reply, .-sd_ble_gap_auth_key_reply
	.section	.text.sd_ble_gap_lesc_dhkey_reply,"ax",%progbits
	.align	1
	.syntax unified
	.thumb
	.thumb_func
	.type	sd_ble_gap_lesc_dhkey_reply, %function
sd_ble_gap_lesc_dhkey_reply:
.LFB32:
	.loc 1 2191 1
	@ Naked Function: prologue and epilogue provided by programmer.
	@ args = 0, pretend = 0, frame = 0
	@ frame_needed = 0, uses_anonymous_args = 0
	.loc 1 2191 1
	.syntax unified
@ 2191 "../../../../../../components/softdevice/s132/headers/ble_gap.h" 1
	svc #129
bx r14
@ 0 "" 2
	.thumb
	.syntax unified
	nop
	mov	r0, r3
.LFE32:
	.size	sd_ble_gap_lesc_dhkey_reply, .-sd_ble_gap_lesc_dhkey_reply
	.section	.text.sd_ble_gap_keypress_notify,"ax",%progbits
	.align	1
	.syntax unified
	.thumb
	.thumb_func
	.type	sd_ble_gap_keypress_notify, %function
sd_ble_gap_keypress_notify:
.LFB33:
	.loc 1 2210 1
	@ Naked Function: prologue and epilogue provided by programmer.
	@ args = 0, pretend = 0, frame = 0
	@ frame_needed = 0, uses_anonymous_args = 0
	.loc 1 2210 1
	.syntax unified
@ 2210 "../../../../../../components/softdevice/s132/headers/ble_gap.h" 1
	svc #130
bx r14
@ 0 "" 2
	.thumb
	.syntax unified
	nop
	mov	r0, r3
.LFE33:
	.size	sd_ble_gap_keypress_notify, .-sd_ble_gap_keypress_notify
	.section	.text.sd_ble_gap_lesc_oob_data_get,"ax",%progbits
	.align	1
	.syntax unified
	.thumb
	.thumb_func
	.type	sd_ble_gap_lesc_oob_data_get, %function
sd_ble_gap_lesc_oob_data_get:
.LFB34:
	.loc 1 2231 1
	@ Naked Function: prologue and epilogue provided by programmer.
	@ args = 0, pretend = 0, frame = 0
	@ frame_needed = 0, uses_anonymous_args = 0
	.loc 1 2231 1
	.syntax unified
@ 2231 "../../../../../../components/softdevice/s132/headers/ble_gap.h" 1
	svc #131
bx r14
@ 0 "" 2
	.thumb
	.syntax unified
	nop
	mov	r0, r3
.LFE34:
	.size	sd_ble_gap_lesc_oob_data_get, .-sd_ble_gap_lesc_oob_data_get
	.section	.text.sd_ble_gap_lesc_oob_data_set,"ax",%progbits
	.align	1
	.syntax unified
	.thumb
	.thumb_func
	.type	sd_ble_gap_lesc_oob_data_set, %function
sd_ble_gap_lesc_oob_data_set:
.LFB35:
	.loc 1 2259 1
	@ Naked Function: prologue and epilogue provided by programmer.
	@ args = 0, pretend = 0, frame = 0
	@ frame_needed = 0, uses_anonymous_args = 0
	.loc 1 2259 1
	.syntax unified
@ 2259 "../../../../../../components/softdevice/s132/headers/ble_gap.h" 1
	svc #132
bx r14
@ 0 "" 2
	.thumb
	.syntax unified
	nop
	mov	r0, r3
.LFE35:
	.size	sd_ble_gap_lesc_oob_data_set, .-sd_ble_gap_lesc_oob_data_set
	.section	.text.sd_ble_gap_encrypt,"ax",%progbits
	.align	1
	.syntax unified
	.thumb
	.thumb_func
	.type	sd_ble_gap_encrypt, %function
sd_ble_gap_encrypt:
.LFB36:
	.loc 1 2288 1
	@ Naked Function: prologue and epilogue provided by programmer.
	@ args = 0, pretend = 0, frame = 0
	@ frame_needed = 0, uses_anonymous_args = 0
	.loc 1 2288 1
	.syntax unified
@ 2288 "../../../../../../components/softdevice/s132/headers/ble_gap.h" 1
	svc #133
bx r14
@ 0 "" 2
	.thumb
	.syntax unified
	nop
	mov	r0, r3
.LFE36:
	.size	sd_ble_gap_encrypt, .-sd_ble_gap_encrypt
	.section	.text.sd_ble_gap_sec_info_reply,"ax",%progbits
	.align	1
	.syntax unified
	.thumb
	.thumb_func
	.type	sd_ble_gap_sec_info_reply, %function
sd_ble_gap_sec_info_reply:
.LFB37:
	.loc 1 2311 1
	@ Naked Function: prologue and epilogue provided by programmer.
	@ args = 0, pretend = 0, frame = 0
	@ frame_needed = 0, uses_anonymous_args = 0
	.loc 1 2311 1
	.syntax unified
@ 2311 "../../../../../../components/softdevice/s132/headers/ble_gap.h" 1
	svc #134
bx r14
@ 0 "" 2
	.thumb
	.syntax unified
	nop
	mov	r0, r3
.LFE37:
	.size	sd_ble_gap_sec_info_reply, .-sd_ble_gap_sec_info_reply
	.section	.text.sd_ble_gap_conn_sec_get,"ax",%progbits
	.align	1
	.syntax unified
	.thumb
	.thumb_func
	.type	sd_ble_gap_conn_sec_get, %function
sd_ble_gap_conn_sec_get:
.LFB38:
	.loc 1 2323 1
	@ Naked Function: prologue and epilogue provided by programmer.
	@ args = 0, pretend = 0, frame = 0
	@ frame_needed = 0, uses_anonymous_args = 0
	.loc 1 2323 1
	.syntax unified
@ 2323 "../../../../../../components/softdevice/s132/headers/ble_gap.h" 1
	svc #135
bx r14
@ 0 "" 2
	.thumb
	.syntax unified
	nop
	mov	r0, r3
.LFE38:
	.size	sd_ble_gap_conn_sec_get, .-sd_ble_gap_conn_sec_get
	.section	.text.sd_ble_gap_rssi_start,"ax",%progbits
	.align	1
	.syntax unified
	.thumb
	.thumb_func
	.type	sd_ble_gap_rssi_start, %function
sd_ble_gap_rssi_start:
.LFB39:
	.loc 1 2349 1
	@ Naked Function: prologue and epilogue provided by programmer.
	@ args = 0, pretend = 0, frame = 0
	@ frame_needed = 0, uses_anonymous_args = 0
	.loc 1 2349 1
	.syntax unified
@ 2349 "../../../../../../components/softdevice/s132/headers/ble_gap.h" 1
	svc #136
bx r14
@ 0 "" 2
	.thumb
	.syntax unified
	nop
	mov	r0, r3
.LFE39:
	.size	sd_ble_gap_rssi_start, .-sd_ble_gap_rssi_start
	.section	.text.sd_ble_gap_rssi_stop,"ax",%progbits
	.align	1
	.syntax unified
	.thumb
	.thumb_func
	.type	sd_ble_gap_rssi_stop, %function
sd_ble_gap_rssi_stop:
.LFB40:
	.loc 1 2368 1
	@ Naked Function: prologue and epilogue provided by programmer.
	@ args = 0, pretend = 0, frame = 0
	@ frame_needed = 0, uses_anonymous_args = 0
	.loc 1 2368 1
	.syntax unified
@ 2368 "../../../../../../components/softdevice/s132/headers/ble_gap.h" 1
	svc #137
bx r14
@ 0 "" 2
	.thumb
	.syntax unified
	nop
	mov	r0, r3
.LFE40:
	.size	sd_ble_gap_rssi_stop, .-sd_ble_gap_rssi_stop
	.section	.text.sd_ble_gap_rssi_get,"ax",%progbits
	.align	1
	.syntax unified
	.thumb
	.thumb_func
	.type	sd_ble_gap_rssi_get, %function
sd_ble_gap_rssi_get:
.LFB41:
	.loc 1 2389 1
	@ Naked Function: prologue and epilogue provided by programmer.
	@ args = 0, pretend = 0, frame = 0
	@ frame_needed = 0, uses_anonymous_args = 0
	.loc 1 2389 1
	.syntax unified
@ 2389 "../../../../../../components/softdevice/s132/headers/ble_gap.h" 1
	svc #142
bx r14
@ 0 "" 2
	.thumb
	.syntax unified
	nop
	mov	r0, r3
.LFE41:
	.size	sd_ble_gap_rssi_get, .-sd_ble_gap_rssi_get
	.section	.text.sd_ble_gap_scan_start,"ax",%progbits
	.align	1
	.syntax unified
	.thumb
	.thumb_func
	.type	sd_ble_gap_scan_start, %function
sd_ble_gap_scan_start:
.LFB42:
	.loc 1 2446 1
	@ Naked Function: prologue and epilogue provided by programmer.
	@ args = 0, pretend = 0, frame = 0
	@ frame_needed = 0, uses_anonymous_args = 0
	.loc 1 2446 1
	.syntax unified
@ 2446 "../../../../../../components/softdevice/s132/headers/ble_gap.h" 1
	svc #138
bx r14
@ 0 "" 2
	.thumb
	.syntax unified
	nop
	mov	r0, r3
.LFE42:
	.size	sd_ble_gap_scan_start, .-sd_ble_gap_scan_start
	.section	.text.sd_ble_gap_scan_stop,"ax",%progbits
	.align	1
	.syntax unified
	.thumb
	.thumb_func
	.type	sd_ble_gap_scan_stop, %function
sd_ble_gap_scan_stop:
.LFB43:
	.loc 1 2461 1
	@ Naked Function: prologue and epilogue provided by programmer.
	@ args = 0, pretend = 0, frame = 0
	@ frame_needed = 0, uses_anonymous_args = 0
	.loc 1 2461 1
	.syntax unified
@ 2461 "../../../../../../components/softdevice/s132/headers/ble_gap.h" 1
	svc #139
bx r14
@ 0 "" 2
	.thumb
	.syntax unified
	nop
	mov	r0, r3
.LFE43:
	.size	sd_ble_gap_scan_stop, .-sd_ble_gap_scan_stop
	.section	.text.sd_ble_gap_connect,"ax",%progbits
	.align	1
	.syntax unified
	.thumb
	.thumb_func
	.type	sd_ble_gap_connect, %function
sd_ble_gap_connect:
.LFB44:
	.loc 1 2501 1
	@ Naked Function: prologue and epilogue provided by programmer.
	@ args = 0, pretend = 0, frame = 0
	@ frame_needed = 0, uses_anonymous_args = 0
	.loc 1 2501 1
	.syntax unified
@ 2501 "../../../../../../components/softdevice/s132/headers/ble_gap.h" 1
	svc #140
bx r14
@ 0 "" 2
	.thumb
	.syntax unified
	nop
	mov	r0, r3
.LFE44:
	.size	sd_ble_gap_connect, .-sd_ble_gap_connect
	.section	.text.sd_ble_gap_connect_cancel,"ax",%progbits
	.align	1
	.syntax unified
	.thumb
	.thumb_func
	.type	sd_ble_gap_connect_cancel, %function
sd_ble_gap_connect_cancel:
.LFB45:
	.loc 1 2513 1
	@ Naked Function: prologue and epilogue provided by programmer.
	@ args = 0, pretend = 0, frame = 0
	@ frame_needed = 0, uses_anonymous_args = 0
	.loc 1 2513 1
	.syntax unified
@ 2513 "../../../../../../components/softdevice/s132/headers/ble_gap.h" 1
	svc #141
bx r14
@ 0 "" 2
	.thumb
	.syntax unified
	nop
	mov	r0, r3
.LFE45:
	.size	sd_ble_gap_connect_cancel, .-sd_ble_gap_connect_cancel
	.section	.text.sd_ble_gap_phy_update,"ax",%progbits
	.align	1
	.syntax unified
	.thumb
	.thumb_func
	.type	sd_ble_gap_phy_update, %function
sd_ble_gap_phy_update:
.LFB46:
	.loc 1 2567 1
	@ Naked Function: prologue and epilogue provided by programmer.
	@ args = 0, pretend = 0, frame = 0
	@ frame_needed = 0, uses_anonymous_args = 0
	.loc 1 2567 1
	.syntax unified
@ 2567 "../../../../../../components/softdevice/s132/headers/ble_gap.h" 1
	svc #143
bx r14
@ 0 "" 2
	.thumb
	.syntax unified
	nop
	mov	r0, r3
.LFE46:
	.size	sd_ble_gap_phy_update, .-sd_ble_gap_phy_update
	.section	.text.sd_ble_gap_data_length_update,"ax",%progbits
	.align	1
	.syntax unified
	.thumb
	.thumb_func
	.type	sd_ble_gap_data_length_update, %function
sd_ble_gap_data_length_update:
.LFB47:
	.loc 1 2602 1
	@ Naked Function: prologue and epilogue provided by programmer.
	@ args = 0, pretend = 0, frame = 0
	@ frame_needed = 0, uses_anonymous_args = 0
	.loc 1 2602 1
	.syntax unified
@ 2602 "../../../../../../components/softdevice/s132/headers/ble_gap.h" 1
	svc #144
bx r14
@ 0 "" 2
	.thumb
	.syntax unified
	nop
	mov	r0, r3
.LFE47:
	.size	sd_ble_gap_data_length_update, .-sd_ble_gap_data_length_update
	.section	.text.sd_ble_gap_qos_channel_survey_start,"ax",%progbits
	.align	1
	.syntax unified
	.thumb
	.thumb_func
	.type	sd_ble_gap_qos_channel_survey_start, %function
sd_ble_gap_qos_channel_survey_start:
.LFB48:
	.loc 1 2634 1
	@ Naked Function: prologue and epilogue provided by programmer.
	@ args = 0, pretend = 0, frame = 0
	@ frame_needed = 0, uses_anonymous_args = 0
	.loc 1 2634 1
	.syntax unified
@ 2634 "../../../../../../components/softdevice/s132/headers/ble_gap.h" 1
	svc #145
bx r14
@ 0 "" 2
	.thumb
	.syntax unified
	nop
	mov	r0, r3
.LFE48:
	.size	sd_ble_gap_qos_channel_survey_start, .-sd_ble_gap_qos_channel_survey_start
	.section	.text.sd_ble_gap_qos_channel_survey_stop,"ax",%progbits
	.align	1
	.syntax unified
	.thumb
	.thumb_func
	.type	sd_ble_gap_qos_channel_survey_stop, %function
sd_ble_gap_qos_channel_survey_stop:
.LFB49:
	.loc 1 2641 1
	@ Naked Function: prologue and epilogue provided by programmer.
	@ args = 0, pretend = 0, frame = 0
	@ frame_needed = 0, uses_anonymous_args = 0
	.loc 1 2641 1
	.syntax unified
@ 2641 "../../../../../../components/softdevice/s132/headers/ble_gap.h" 1
	svc #146
bx r14
@ 0 "" 2
	.thumb
	.syntax unified
	nop
	mov	r0, r3
.LFE49:
	.size	sd_ble_gap_qos_channel_survey_stop, .-sd_ble_gap_qos_channel_survey_stop
	.section	.text.sd_ble_l2cap_ch_setup,"ax",%progbits
	.align	1
	.syntax unified
	.thumb
	.thumb_func
	.type	sd_ble_l2cap_ch_setup, %function
sd_ble_l2cap_ch_setup:
.LFB50:
	.file 2 "../../../../../../components/softdevice/s132/headers/ble_l2cap.h"
	.loc 2 349 1
	@ Naked Function: prologue and epilogue provided by programmer.
	@ args = 0, pretend = 0, frame = 0
	@ frame_needed = 0, uses_anonymous_args = 0
	.loc 2 349 1
	.syntax unified
@ 349 "../../../../../../components/softdevice/s132/headers/ble_l2cap.h" 1
	svc #184
bx r14
@ 0 "" 2
	.thumb
	.syntax unified
	nop
	mov	r0, r3
.LFE50:
	.size	sd_ble_l2cap_ch_setup, .-sd_ble_l2cap_ch_setup
	.section	.text.sd_ble_l2cap_ch_release,"ax",%progbits
	.align	1
	.syntax unified
	.thumb
	.thumb_func
	.type	sd_ble_l2cap_ch_release, %function
sd_ble_l2cap_ch_release:
.LFB51:
	.loc 2 372 1
	@ Naked Function: prologue and epilogue provided by programmer.
	@ args = 0, pretend = 0, frame = 0
	@ frame_needed = 0, uses_anonymous_args = 0
	.loc 2 372 1
	.syntax unified
@ 372 "../../../../../../components/softdevice/s132/headers/ble_l2cap.h" 1
	svc #185
bx r14
@ 0 "" 2
	.thumb
	.syntax unified
	nop
	mov	r0, r3
.LFE51:
	.size	sd_ble_l2cap_ch_release, .-sd_ble_l2cap_ch_release
	.section	.text.sd_ble_l2cap_ch_rx,"ax",%progbits
	.align	1
	.syntax unified
	.thumb
	.thumb_func
	.type	sd_ble_l2cap_ch_rx, %function
sd_ble_l2cap_ch_rx:
.LFB52:
	.loc 2 406 1
	@ Naked Function: prologue and epilogue provided by programmer.
	@ args = 0, pretend = 0, frame = 0
	@ frame_needed = 0, uses_anonymous_args = 0
	.loc 2 406 1
	.syntax unified
@ 406 "../../../../../../components/softdevice/s132/headers/ble_l2cap.h" 1
	svc #186
bx r14
@ 0 "" 2
	.thumb
	.syntax unified
	nop
	mov	r0, r3
.LFE52:
	.size	sd_ble_l2cap_ch_rx, .-sd_ble_l2cap_ch_rx
	.section	.text.sd_ble_l2cap_ch_tx,"ax",%progbits
	.align	1
	.syntax unified
	.thumb
	.thumb_func
	.type	sd_ble_l2cap_ch_tx, %function
sd_ble_l2cap_ch_tx:
.LFB53:
	.loc 2 451 1
	@ Naked Function: prologue and epilogue provided by programmer.
	@ args = 0, pretend = 0, frame = 0
	@ frame_needed = 0, uses_anonymous_args = 0
	.loc 2 451 1
	.syntax unified
@ 451 "../../../../../../components/softdevice/s132/headers/ble_l2cap.h" 1
	svc #187
bx r14
@ 0 "" 2
	.thumb
	.syntax unified
	nop
	mov	r0, r3
.LFE53:
	.size	sd_ble_l2cap_ch_tx, .-sd_ble_l2cap_ch_tx
	.section	.text.sd_ble_l2cap_ch_flow_control,"ax",%progbits
	.align	1
	.syntax unified
	.thumb
	.thumb_func
	.type	sd_ble_l2cap_ch_flow_control, %function
sd_ble_l2cap_ch_flow_control:
.LFB54:
	.loc 2 495 1
	@ Naked Function: prologue and epilogue provided by programmer.
	@ args = 0, pretend = 0, frame = 0
	@ frame_needed = 0, uses_anonymous_args = 0
	.loc 2 495 1
	.syntax unified
@ 495 "../../../../../../components/softdevice/s132/headers/ble_l2cap.h" 1
	svc #188
bx r14
@ 0 "" 2
	.thumb
	.syntax unified
	nop
	mov	r0, r3
.LFE54:
	.size	sd_ble_l2cap_ch_flow_control, .-sd_ble_l2cap_ch_flow_control
	.section	.text.sd_ble_gattc_primary_services_discover,"ax",%progbits
	.align	1
	.syntax unified
	.thumb
	.thumb_func
	.type	sd_ble_gattc_primary_services_discover, %function
sd_ble_gattc_primary_services_discover:
.LFB179:
	.file 3 "../../../../../../components/softdevice/s132/headers/ble_gattc.h"
	.loc 3 379 1
	@ Naked Function: prologue and epilogue provided by programmer.
	@ args = 0, pretend = 0, frame = 0
	@ frame_needed = 0, uses_anonymous_args = 0
	.loc 3 379 1
	.syntax unified
@ 379 "../../../../../../components/softdevice/s132/headers/ble_gattc.h" 1
	svc #155
bx r14
@ 0 "" 2
	.thumb
	.syntax unified
	nop
	mov	r0, r3
.LFE179:
	.size	sd_ble_gattc_primary_services_discover, .-sd_ble_gattc_primary_services_discover
	.section	.text.sd_ble_gattc_relationships_discover,"ax",%progbits
	.align	1
	.syntax unified
	.thumb
	.thumb_func
	.type	sd_ble_gattc_relationships_discover, %function
sd_ble_gattc_relationships_discover:
.LFB180:
	.loc 3 406 1
	@ Naked Function: prologue and epilogue provided by programmer.
	@ args = 0, pretend = 0, frame = 0
	@ frame_needed = 0, uses_anonymous_args = 0
	.loc 3 406 1
	.syntax unified
@ 406 "../../../../../../components/softdevice/s132/headers/ble_gattc.h" 1
	svc #156
bx r14
@ 0 "" 2
	.thumb
	.syntax unified
	nop
	mov	r0, r3
.LFE180:
	.size	sd_ble_gattc_relationships_discover, .-sd_ble_gattc_relationships_discover
	.section	.text.sd_ble_gattc_characteristics_discover,"ax",%progbits
	.align	1
	.syntax unified
	.thumb
	.thumb_func
	.type	sd_ble_gattc_characteristics_discover, %function
sd_ble_gattc_characteristics_discover:
.LFB181:
	.loc 3 435 1
	@ Naked Function: prologue and epilogue provided by programmer.
	@ args = 0, pretend = 0, frame = 0
	@ frame_needed = 0, uses_anonymous_args = 0
	.loc 3 435 1
	.syntax unified
@ 435 "../../../../../../components/softdevice/s132/headers/ble_gattc.h" 1
	svc #157
bx r14
@ 0 "" 2
	.thumb
	.syntax unified
	nop
	mov	r0, r3
.LFE181:
	.size	sd_ble_gattc_characteristics_discover, .-sd_ble_gattc_characteristics_discover
	.section	.text.sd_ble_gattc_descriptors_discover,"ax",%progbits
	.align	1
	.syntax unified
	.thumb
	.thumb_func
	.type	sd_ble_gattc_descriptors_discover, %function
sd_ble_gattc_descriptors_discover:
.LFB182:
	.loc 3 461 1
	@ Naked Function: prologue and epilogue provided by programmer.
	@ args = 0, pretend = 0, frame = 0
	@ frame_needed = 0, uses_anonymous_args = 0
	.loc 3 461 1
	.syntax unified
@ 461 "../../../../../../components/softdevice/s132/headers/ble_gattc.h" 1
	svc #158
bx r14
@ 0 "" 2
	.thumb
	.syntax unified
	nop
	mov	r0, r3
.LFE182:
	.size	sd_ble_gattc_descriptors_discover, .-sd_ble_gattc_descriptors_discover
	.section	.text.sd_ble_gattc_char_value_by_uuid_read,"ax",%progbits
	.align	1
	.syntax unified
	.thumb
	.thumb_func
	.type	sd_ble_gattc_char_value_by_uuid_read, %function
sd_ble_gattc_char_value_by_uuid_read:
.LFB183:
	.loc 3 488 1
	@ Naked Function: prologue and epilogue provided by programmer.
	@ args = 0, pretend = 0, frame = 0
	@ frame_needed = 0, uses_anonymous_args = 0
	.loc 3 488 1
	.syntax unified
@ 488 "../../../../../../components/softdevice/s132/headers/ble_gattc.h" 1
	svc #160
bx r14
@ 0 "" 2
	.thumb
	.syntax unified
	nop
	mov	r0, r3
.LFE183:
	.size	sd_ble_gattc_char_value_by_uuid_read, .-sd_ble_gattc_char_value_by_uuid_read
	.section	.text.sd_ble_gattc_read,"ax",%progbits
	.align	1
	.syntax unified
	.thumb
	.thumb_func
	.type	sd_ble_gattc_read, %function
sd_ble_gattc_read:
.LFB184:
	.loc 3 515 1
	@ Naked Function: prologue and epilogue provided by programmer.
	@ args = 0, pretend = 0, frame = 0
	@ frame_needed = 0, uses_anonymous_args = 0
	.loc 3 515 1
	.syntax unified
@ 515 "../../../../../../components/softdevice/s132/headers/ble_gattc.h" 1
	svc #161
bx r14
@ 0 "" 2
	.thumb
	.syntax unified
	nop
	mov	r0, r3
.LFE184:
	.size	sd_ble_gattc_read, .-sd_ble_gattc_read
	.section	.text.sd_ble_gattc_char_values_read,"ax",%progbits
	.align	1
	.syntax unified
	.thumb
	.thumb_func
	.type	sd_ble_gattc_char_values_read, %function
sd_ble_gattc_char_values_read:
.LFB185:
	.loc 3 541 1
	@ Naked Function: prologue and epilogue provided by programmer.
	@ args = 0, pretend = 0, frame = 0
	@ frame_needed = 0, uses_anonymous_args = 0
	.loc 3 541 1
	.syntax unified
@ 541 "../../../../../../components/softdevice/s132/headers/ble_gattc.h" 1
	svc #162
bx r14
@ 0 "" 2
	.thumb
	.syntax unified
	nop
	mov	r0, r3
.LFE185:
	.size	sd_ble_gattc_char_values_read, .-sd_ble_gattc_char_values_read
	.section	.text.sd_ble_gattc_write,"ax",%progbits
	.align	1
	.syntax unified
	.thumb
	.thumb_func
	.type	sd_ble_gattc_write, %function
sd_ble_gattc_write:
.LFB186:
	.loc 3 588 1
	@ Naked Function: prologue and epilogue provided by programmer.
	@ args = 0, pretend = 0, frame = 0
	@ frame_needed = 0, uses_anonymous_args = 0
	.loc 3 588 1
	.syntax unified
@ 588 "../../../../../../components/softdevice/s132/headers/ble_gattc.h" 1
	svc #163
bx r14
@ 0 "" 2
	.thumb
	.syntax unified
	nop
	mov	r0, r3
.LFE186:
	.size	sd_ble_gattc_write, .-sd_ble_gattc_write
	.section	.text.sd_ble_gattc_hv_confirm,"ax",%progbits
	.align	1
	.syntax unified
	.thumb
	.thumb_func
	.type	sd_ble_gattc_hv_confirm, %function
sd_ble_gattc_hv_confirm:
.LFB187:
	.loc 3 606 1
	@ Naked Function: prologue and epilogue provided by programmer.
	@ args = 0, pretend = 0, frame = 0
	@ frame_needed = 0, uses_anonymous_args = 0
	.loc 3 606 1
	.syntax unified
@ 606 "../../../../../../components/softdevice/s132/headers/ble_gattc.h" 1
	svc #164
bx r14
@ 0 "" 2
	.thumb
	.syntax unified
	nop
	mov	r0, r3
.LFE187:
	.size	sd_ble_gattc_hv_confirm, .-sd_ble_gattc_hv_confirm
	.section	.text.sd_ble_gattc_attr_info_discover,"ax",%progbits
	.align	1
	.syntax unified
	.thumb
	.thumb_func
	.type	sd_ble_gattc_attr_info_discover, %function
sd_ble_gattc_attr_info_discover:
.LFB188:
	.loc 3 624 1
	@ Naked Function: prologue and epilogue provided by programmer.
	@ args = 0, pretend = 0, frame = 0
	@ frame_needed = 0, uses_anonymous_args = 0
	.loc 3 624 1
	.syntax unified
@ 624 "../../../../../../components/softdevice/s132/headers/ble_gattc.h" 1
	svc #159
bx r14
@ 0 "" 2
	.thumb
	.syntax unified
	nop
	mov	r0, r3
.LFE188:
	.size	sd_ble_gattc_attr_info_discover, .-sd_ble_gattc_attr_info_discover
	.section	.text.sd_ble_gattc_exchange_mtu_request,"ax",%progbits
	.align	1
	.syntax unified
	.thumb
	.thumb_func
	.type	sd_ble_gattc_exchange_mtu_request, %function
sd_ble_gattc_exchange_mtu_request:
.LFB189:
	.loc 3 657 1
	@ Naked Function: prologue and epilogue provided by programmer.
	@ args = 0, pretend = 0, frame = 0
	@ frame_needed = 0, uses_anonymous_args = 0
	.loc 3 657 1
	.syntax unified
@ 657 "../../../../../../components/softdevice/s132/headers/ble_gattc.h" 1
	svc #165
bx r14
@ 0 "" 2
	.thumb
	.syntax unified
	nop
	mov	r0, r3
.LFE189:
	.size	sd_ble_gattc_exchange_mtu_request, .-sd_ble_gattc_exchange_mtu_request
	.section	.text.sd_ble_gatts_service_add,"ax",%progbits
	.align	1
	.syntax unified
	.thumb
	.thumb_func
	.type	sd_ble_gatts_service_add, %function
sd_ble_gatts_service_add:
.LFB191:
	.file 4 "../../../../../../components/softdevice/s132/headers/ble_gatts.h"
	.loc 4 448 1
	@ Naked Function: prologue and epilogue provided by programmer.
	@ args = 0, pretend = 0, frame = 0
	@ frame_needed = 0, uses_anonymous_args = 0
	.loc 4 448 1
	.syntax unified
@ 448 "../../../../../../components/softdevice/s132/headers/ble_gatts.h" 1
	svc #168
bx r14
@ 0 "" 2
	.thumb
	.syntax unified
	nop
	mov	r0, r3
.LFE191:
	.size	sd_ble_gatts_service_add, .-sd_ble_gatts_service_add
	.section	.text.sd_ble_gatts_include_add,"ax",%progbits
	.align	1
	.syntax unified
	.thumb
	.thumb_func
	.type	sd_ble_gatts_include_add, %function
sd_ble_gatts_include_add:
.LFB192:
	.loc 4 474 1
	@ Naked Function: prologue and epilogue provided by programmer.
	@ args = 0, pretend = 0, frame = 0
	@ frame_needed = 0, uses_anonymous_args = 0
	.loc 4 474 1
	.syntax unified
@ 474 "../../../../../../components/softdevice/s132/headers/ble_gatts.h" 1
	svc #169
bx r14
@ 0 "" 2
	.thumb
	.syntax unified
	nop
	mov	r0, r3
.LFE192:
	.size	sd_ble_gatts_include_add, .-sd_ble_gatts_include_add
	.section	.text.sd_ble_gatts_characteristic_add,"ax",%progbits
	.align	1
	.syntax unified
	.thumb
	.thumb_func
	.type	sd_ble_gatts_characteristic_add, %function
sd_ble_gatts_characteristic_add:
.LFB193:
	.loc 4 503 1
	@ Naked Function: prologue and epilogue provided by programmer.
	@ args = 0, pretend = 0, frame = 0
	@ frame_needed = 0, uses_anonymous_args = 0
	.loc 4 503 1
	.syntax unified
@ 503 "../../../../../../components/softdevice/s132/headers/ble_gatts.h" 1
	svc #170
bx r14
@ 0 "" 2
	.thumb
	.syntax unified
	nop
	mov	r0, r3
.LFE193:
	.size	sd_ble_gatts_characteristic_add, .-sd_ble_gatts_characteristic_add
	.section	.text.sd_ble_gatts_descriptor_add,"ax",%progbits
	.align	1
	.syntax unified
	.thumb
	.thumb_func
	.type	sd_ble_gatts_descriptor_add, %function
sd_ble_gatts_descriptor_add:
.LFB194:
	.loc 4 526 1
	@ Naked Function: prologue and epilogue provided by programmer.
	@ args = 0, pretend = 0, frame = 0
	@ frame_needed = 0, uses_anonymous_args = 0
	.loc 4 526 1
	.syntax unified
@ 526 "../../../../../../components/softdevice/s132/headers/ble_gatts.h" 1
	svc #171
bx r14
@ 0 "" 2
	.thumb
	.syntax unified
	nop
	mov	r0, r3
.LFE194:
	.size	sd_ble_gatts_descriptor_add, .-sd_ble_gatts_descriptor_add
	.section	.text.sd_ble_gatts_value_set,"ax",%progbits
	.align	1
	.syntax unified
	.thumb
	.thumb_func
	.type	sd_ble_gatts_value_set, %function
sd_ble_gatts_value_set:
.LFB195:
	.loc 4 549 1
	@ Naked Function: prologue and epilogue provided by programmer.
	@ args = 0, pretend = 0, frame = 0
	@ frame_needed = 0, uses_anonymous_args = 0
	.loc 4 549 1
	.syntax unified
@ 549 "../../../../../../components/softdevice/s132/headers/ble_gatts.h" 1
	svc #172
bx r14
@ 0 "" 2
	.thumb
	.syntax unified
	nop
	mov	r0, r3
.LFE195:
	.size	sd_ble_gatts_value_set, .-sd_ble_gatts_value_set
	.section	.text.sd_ble_gatts_value_get,"ax",%progbits
	.align	1
	.syntax unified
	.thumb
	.thumb_func
	.type	sd_ble_gatts_value_get, %function
sd_ble_gatts_value_get:
.LFB196:
	.loc 4 573 1
	@ Naked Function: prologue and epilogue provided by programmer.
	@ args = 0, pretend = 0, frame = 0
	@ frame_needed = 0, uses_anonymous_args = 0
	.loc 4 573 1
	.syntax unified
@ 573 "../../../../../../components/softdevice/s132/headers/ble_gatts.h" 1
	svc #173
bx r14
@ 0 "" 2
	.thumb
	.syntax unified
	nop
	mov	r0, r3
.LFE196:
	.size	sd_ble_gatts_value_get, .-sd_ble_gatts_value_get
	.section	.text.sd_ble_gatts_hvx,"ax",%progbits
	.align	1
	.syntax unified
	.thumb
	.thumb_func
	.type	sd_ble_gatts_hvx, %function
sd_ble_gatts_hvx:
.LFB197:
	.loc 4 638 1
	@ Naked Function: prologue and epilogue provided by programmer.
	@ args = 0, pretend = 0, frame = 0
	@ frame_needed = 0, uses_anonymous_args = 0
	.loc 4 638 1
	.syntax unified
@ 638 "../../../../../../components/softdevice/s132/headers/ble_gatts.h" 1
	svc #174
bx r14
@ 0 "" 2
	.thumb
	.syntax unified
	nop
	mov	r0, r3
.LFE197:
	.size	sd_ble_gatts_hvx, .-sd_ble_gatts_hvx
	.section	.text.sd_ble_gatts_service_changed,"ax",%progbits
	.align	1
	.syntax unified
	.thumb
	.thumb_func
	.type	sd_ble_gatts_service_changed, %function
sd_ble_gatts_service_changed:
.LFB198:
	.loc 4 674 1
	@ Naked Function: prologue and epilogue provided by programmer.
	@ args = 0, pretend = 0, frame = 0
	@ frame_needed = 0, uses_anonymous_args = 0
	.loc 4 674 1
	.syntax unified
@ 674 "../../../../../../components/softdevice/s132/headers/ble_gatts.h" 1
	svc #175
bx r14
@ 0 "" 2
	.thumb
	.syntax unified
	nop
	mov	r0, r3
.LFE198:
	.size	sd_ble_gatts_service_changed, .-sd_ble_gatts_service_changed
	.section	.text.sd_ble_gatts_rw_authorize_reply,"ax",%progbits
	.align	1
	.syntax unified
	.thumb
	.thumb_func
	.type	sd_ble_gatts_rw_authorize_reply, %function
sd_ble_gatts_rw_authorize_reply:
.LFB199:
	.loc 4 707 1
	@ Naked Function: prologue and epilogue provided by programmer.
	@ args = 0, pretend = 0, frame = 0
	@ frame_needed = 0, uses_anonymous_args = 0
	.loc 4 707 1
	.syntax unified
@ 707 "../../../../../../components/softdevice/s132/headers/ble_gatts.h" 1
	svc #176
bx r14
@ 0 "" 2
	.thumb
	.syntax unified
	nop
	mov	r0, r3
.LFE199:
	.size	sd_ble_gatts_rw_authorize_reply, .-sd_ble_gatts_rw_authorize_reply
	.section	.text.sd_ble_gatts_sys_attr_set,"ax",%progbits
	.align	1
	.syntax unified
	.thumb
	.thumb_func
	.type	sd_ble_gatts_sys_attr_set, %function
sd_ble_gatts_sys_attr_set:
.LFB200:
	.loc 4 751 1
	@ Naked Function: prologue and epilogue provided by programmer.
	@ args = 0, pretend = 0, frame = 0
	@ frame_needed = 0, uses_anonymous_args = 0
	.loc 4 751 1
	.syntax unified
@ 751 "../../../../../../components/softdevice/s132/headers/ble_gatts.h" 1
	svc #177
bx r14
@ 0 "" 2
	.thumb
	.syntax unified
	nop
	mov	r0, r3
.LFE200:
	.size	sd_ble_gatts_sys_attr_set, .-sd_ble_gatts_sys_attr_set
	.section	.text.sd_ble_gatts_sys_attr_get,"ax",%progbits
	.align	1
	.syntax unified
	.thumb
	.thumb_func
	.type	sd_ble_gatts_sys_attr_get, %function
sd_ble_gatts_sys_attr_get:
.LFB201:
	.loc 4 784 1
	@ Naked Function: prologue and epilogue provided by programmer.
	@ args = 0, pretend = 0, frame = 0
	@ frame_needed = 0, uses_anonymous_args = 0
	.loc 4 784 1
	.syntax unified
@ 784 "../../../../../../components/softdevice/s132/headers/ble_gatts.h" 1
	svc #178
bx r14
@ 0 "" 2
	.thumb
	.syntax unified
	nop
	mov	r0, r3
.LFE201:
	.size	sd_ble_gatts_sys_attr_get, .-sd_ble_gatts_sys_attr_get
	.section	.text.sd_ble_gatts_initial_user_handle_get,"ax",%progbits
	.align	1
	.syntax unified
	.thumb
	.thumb_func
	.type	sd_ble_gatts_initial_user_handle_get, %function
sd_ble_gatts_initial_user_handle_get:
.LFB202:
	.loc 4 794 1
	@ Naked Function: prologue and epilogue provided by programmer.
	@ args = 0, pretend = 0, frame = 0
	@ frame_needed = 0, uses_anonymous_args = 0
	.loc 4 794 1
	.syntax unified
@ 794 "../../../../../../components/softdevice/s132/headers/ble_gatts.h" 1
	svc #179
bx r14
@ 0 "" 2
	.thumb
	.syntax unified
	nop
	mov	r0, r3
.LFE202:
	.size	sd_ble_gatts_initial_user_handle_get, .-sd_ble_gatts_initial_user_handle_get
	.section	.text.sd_ble_gatts_attr_get,"ax",%progbits
	.align	1
	.syntax unified
	.thumb
	.thumb_func
	.type	sd_ble_gatts_attr_get, %function
sd_ble_gatts_attr_get:
.LFB203:
	.loc 4 807 1
	@ Naked Function: prologue and epilogue provided by programmer.
	@ args = 0, pretend = 0, frame = 0
	@ frame_needed = 0, uses_anonymous_args = 0
	.loc 4 807 1
	.syntax unified
@ 807 "../../../../../../components/softdevice/s132/headers/ble_gatts.h" 1
	svc #180
bx r14
@ 0 "" 2
	.thumb
	.syntax unified
	nop
	mov	r0, r3
.LFE203:
	.size	sd_ble_gatts_attr_get, .-sd_ble_gatts_attr_get
	.section	.text.sd_ble_gatts_exchange_mtu_reply,"ax",%progbits
	.align	1
	.syntax unified
	.thumb
	.thumb_func
	.type	sd_ble_gatts_exchange_mtu_reply, %function
sd_ble_gatts_exchange_mtu_reply:
.LFB204:
	.loc 4 837 1
	@ Naked Function: prologue and epilogue provided by programmer.
	@ args = 0, pretend = 0, frame = 0
	@ frame_needed = 0, uses_anonymous_args = 0
	.loc 4 837 1
	.syntax unified
@ 837 "../../../../../../components/softdevice/s132/headers/ble_gatts.h" 1
	svc #181
bx r14
@ 0 "" 2
	.thumb
	.syntax unified
	nop
	mov	r0, r3
.LFE204:
	.size	sd_ble_gatts_exchange_mtu_reply, .-sd_ble_gatts_exchange_mtu_reply
	.section	.text.sd_ble_enable,"ax",%progbits
	.align	1
	.syntax unified
	.thumb
	.thumb_func
	.type	sd_ble_enable, %function
sd_ble_enable:
.LFB205:
	.file 5 "../../../../../../components/softdevice/s132/headers/ble.h"
	.loc 5 394 1
	@ Naked Function: prologue and epilogue provided by programmer.
	@ args = 0, pretend = 0, frame = 0
	@ frame_needed = 0, uses_anonymous_args = 0
	.loc 5 394 1
	.syntax unified
@ 394 "../../../../../../components/softdevice/s132/headers/ble.h" 1
	svc #96
bx r14
@ 0 "" 2
	.thumb
	.syntax unified
	nop
	mov	r0, r3
.LFE205:
	.size	sd_ble_enable, .-sd_ble_enable
	.section	.text.sd_ble_cfg_set,"ax",%progbits
	.align	1
	.syntax unified
	.thumb
	.thumb_func
	.type	sd_ble_cfg_set, %function
sd_ble_cfg_set:
.LFB206:
	.loc 5 430 1
	@ Naked Function: prologue and epilogue provided by programmer.
	@ args = 0, pretend = 0, frame = 0
	@ frame_needed = 0, uses_anonymous_args = 0
	.loc 5 430 1
	.syntax unified
@ 430 "../../../../../../components/softdevice/s132/headers/ble.h" 1
	svc #105
bx r14
@ 0 "" 2
	.thumb
	.syntax unified
	nop
	mov	r0, r3
.LFE206:
	.size	sd_ble_cfg_set, .-sd_ble_cfg_set
	.section	.text.sd_ble_evt_get,"ax",%progbits
	.align	1
	.syntax unified
	.thumb
	.thumb_func
	.type	sd_ble_evt_get, %function
sd_ble_evt_get:
.LFB207:
	.loc 5 468 1
	@ Naked Function: prologue and epilogue provided by programmer.
	@ args = 0, pretend = 0, frame = 0
	@ frame_needed = 0, uses_anonymous_args = 0
	.loc 5 468 1
	.syntax unified
@ 468 "../../../../../../components/softdevice/s132/headers/ble.h" 1
	svc #97
bx r14
@ 0 "" 2
	.thumb
	.syntax unified
	nop
	mov	r0, r3
.LFE207:
	.size	sd_ble_evt_get, .-sd_ble_evt_get
	.section	.text.sd_ble_uuid_vs_add,"ax",%progbits
	.align	1
	.syntax unified
	.thumb
	.thumb_func
	.type	sd_ble_uuid_vs_add, %function
sd_ble_uuid_vs_add:
.LFB208:
	.loc 5 497 1
	@ Naked Function: prologue and epilogue provided by programmer.
	@ args = 0, pretend = 0, frame = 0
	@ frame_needed = 0, uses_anonymous_args = 0
	.loc 5 497 1
	.syntax unified
@ 497 "../../../../../../components/softdevice/s132/headers/ble.h" 1
	svc #98
bx r14
@ 0 "" 2
	.thumb
	.syntax unified
	nop
	mov	r0, r3
.LFE208:
	.size	sd_ble_uuid_vs_add, .-sd_ble_uuid_vs_add
	.section	.text.sd_ble_uuid_decode,"ax",%progbits
	.align	1
	.syntax unified
	.thumb
	.thumb_func
	.type	sd_ble_uuid_decode, %function
sd_ble_uuid_decode:
.LFB209:
	.loc 5 518 1
	@ Naked Function: prologue and epilogue provided by programmer.
	@ args = 0, pretend = 0, frame = 0
	@ frame_needed = 0, uses_anonymous_args = 0
	.loc 5 518 1
	.syntax unified
@ 518 "../../../../../../components/softdevice/s132/headers/ble.h" 1
	svc #99
bx r14
@ 0 "" 2
	.thumb
	.syntax unified
	nop
	mov	r0, r3
.LFE209:
	.size	sd_ble_uuid_decode, .-sd_ble_uuid_decode
	.section	.text.sd_ble_uuid_encode,"ax",%progbits
	.align	1
	.syntax unified
	.thumb
	.thumb_func
	.type	sd_ble_uuid_encode, %function
sd_ble_uuid_encode:
.LFB210:
	.loc 5 533 1
	@ Naked Function: prologue and epilogue provided by programmer.
	@ args = 0, pretend = 0, frame = 0
	@ frame_needed = 0, uses_anonymous_args = 0
	.loc 5 533 1
	.syntax unified
@ 533 "../../../../../../components/softdevice/s132/headers/ble.h" 1
	svc #100
bx r14
@ 0 "" 2
	.thumb
	.syntax unified
	nop
	mov	r0, r3
.LFE210:
	.size	sd_ble_uuid_encode, .-sd_ble_uuid_encode
	.section	.text.sd_ble_version_get,"ax",%progbits
	.align	1
	.syntax unified
	.thumb
	.thumb_func
	.type	sd_ble_version_get, %function
sd_ble_version_get:
.LFB211:
	.loc 5 546 1
	@ Naked Function: prologue and epilogue provided by programmer.
	@ args = 0, pretend = 0, frame = 0
	@ frame_needed = 0, uses_anonymous_args = 0
	.loc 5 546 1
	.syntax unified
@ 546 "../../../../../../components/softdevice/s132/headers/ble.h" 1
	svc #101
bx r14
@ 0 "" 2
	.thumb
	.syntax unified
	nop
	mov	r0, r3
.LFE211:
	.size	sd_ble_version_get, .-sd_ble_version_get
	.section	.text.sd_ble_user_mem_reply,"ax",%progbits
	.align	1
	.syntax unified
	.thumb
	.thumb_func
	.type	sd_ble_user_mem_reply, %function
sd_ble_user_mem_reply:
.LFB212:
	.loc 5 572 1
	@ Naked Function: prologue and epilogue provided by programmer.
	@ args = 0, pretend = 0, frame = 0
	@ frame_needed = 0, uses_anonymous_args = 0
	.loc 5 572 1
	.syntax unified
@ 572 "../../../../../../components/softdevice/s132/headers/ble.h" 1
	svc #102
bx r14
@ 0 "" 2
	.thumb
	.syntax unified
	nop
	mov	r0, r3
.LFE212:
	.size	sd_ble_user_mem_reply, .-sd_ble_user_mem_reply
	.section	.text.sd_ble_opt_set,"ax",%progbits
	.align	1
	.syntax unified
	.thumb
	.thumb_func
	.type	sd_ble_opt_set, %function
sd_ble_opt_set:
.LFB213:
	.loc 5 592 1
	@ Naked Function: prologue and epilogue provided by programmer.
	@ args = 0, pretend = 0, frame = 0
	@ frame_needed = 0, uses_anonymous_args = 0
	.loc 5 592 1
	.syntax unified
@ 592 "../../../../../../components/softdevice/s132/headers/ble.h" 1
	svc #103
bx r14
@ 0 "" 2
	.thumb
	.syntax unified
	nop
	mov	r0, r3
.LFE213:
	.size	sd_ble_opt_set, .-sd_ble_opt_set
	.section	.text.sd_ble_opt_get,"ax",%progbits
	.align	1
	.syntax unified
	.thumb
	.thumb_func
	.type	sd_ble_opt_get, %function
sd_ble_opt_get:
.LFB214:
	.loc 5 611 1
	@ Naked Function: prologue and epilogue provided by programmer.
	@ args = 0, pretend = 0, frame = 0
	@ frame_needed = 0, uses_anonymous_args = 0
	.loc 5 611 1
	.syntax unified
@ 611 "../../../../../../components/softdevice/s132/headers/ble.h" 1
	svc #104
bx r14
@ 0 "" 2
	.thumb
	.syntax unified
	nop
	mov	r0, r3
.LFE214:
	.size	sd_ble_opt_get, .-sd_ble_opt_get
	.section	.text.sd_mutex_new,"ax",%progbits
	.align	1
	.syntax unified
	.thumb
	.thumb_func
	.type	sd_mutex_new, %function
sd_mutex_new:
.LFB234:
	.file 6 "../../../../../../components/softdevice/s132/headers/nrf_soc.h"
	.loc 6 393 1
	@ Naked Function: prologue and epilogue provided by programmer.
	@ args = 0, pretend = 0, frame = 0
	@ frame_needed = 0, uses_anonymous_args = 0
	.loc 6 393 1
	.syntax unified
@ 393 "../../../../../../components/softdevice/s132/headers/nrf_soc.h" 1
	svc #44
bx r14
@ 0 "" 2
	.thumb
	.syntax unified
	nop
	mov	r0, r3
.LFE234:
	.size	sd_mutex_new, .-sd_mutex_new
	.section	.text.sd_mutex_acquire,"ax",%progbits
	.align	1
	.syntax unified
	.thumb
	.thumb_func
	.type	sd_mutex_acquire, %function
sd_mutex_acquire:
.LFB235:
	.loc 6 402 1
	@ Naked Function: prologue and epilogue provided by programmer.
	@ args = 0, pretend = 0, frame = 0
	@ frame_needed = 0, uses_anonymous_args = 0
	.loc 6 402 1
	.syntax unified
@ 402 "../../../../../../components/softdevice/s132/headers/nrf_soc.h" 1
	svc #45
bx r14
@ 0 "" 2
	.thumb
	.syntax unified
	nop
	mov	r0, r3
.LFE235:
	.size	sd_mutex_acquire, .-sd_mutex_acquire
	.section	.text.sd_mutex_release,"ax",%progbits
	.align	1
	.syntax unified
	.thumb
	.thumb_func
	.type	sd_mutex_release, %function
sd_mutex_release:
.LFB236:
	.loc 6 410 1
	@ Naked Function: prologue and epilogue provided by programmer.
	@ args = 0, pretend = 0, frame = 0
	@ frame_needed = 0, uses_anonymous_args = 0
	.loc 6 410 1
	.syntax unified
@ 410 "../../../../../../components/softdevice/s132/headers/nrf_soc.h" 1
	svc #46
bx r14
@ 0 "" 2
	.thumb
	.syntax unified
	nop
	mov	r0, r3
.LFE236:
	.size	sd_mutex_release, .-sd_mutex_release
	.section	.text.sd_rand_application_pool_capacity_get,"ax",%progbits
	.align	1
	.syntax unified
	.thumb
	.thumb_func
	.type	sd_rand_application_pool_capacity_get, %function
sd_rand_application_pool_capacity_get:
.LFB237:
	.loc 6 418 1
	@ Naked Function: prologue and epilogue provided by programmer.
	@ args = 0, pretend = 0, frame = 0
	@ frame_needed = 0, uses_anonymous_args = 0
	.loc 6 418 1
	.syntax unified
@ 418 "../../../../../../components/softdevice/s132/headers/nrf_soc.h" 1
	svc #47
bx r14
@ 0 "" 2
	.thumb
	.syntax unified
	nop
	mov	r0, r3
.LFE237:
	.size	sd_rand_application_pool_capacity_get, .-sd_rand_application_pool_capacity_get
	.section	.text.sd_rand_application_bytes_available_get,"ax",%progbits
	.align	1
	.syntax unified
	.thumb
	.thumb_func
	.type	sd_rand_application_bytes_available_get, %function
sd_rand_application_bytes_available_get:
.LFB238:
	.loc 6 426 1
	@ Naked Function: prologue and epilogue provided by programmer.
	@ args = 0, pretend = 0, frame = 0
	@ frame_needed = 0, uses_anonymous_args = 0
	.loc 6 426 1
	.syntax unified
@ 426 "../../../../../../components/softdevice/s132/headers/nrf_soc.h" 1
	svc #48
bx r14
@ 0 "" 2
	.thumb
	.syntax unified
	nop
	mov	r0, r3
.LFE238:
	.size	sd_rand_application_bytes_available_get, .-sd_rand_application_bytes_available_get
	.section	.text.sd_rand_application_vector_get,"ax",%progbits
	.align	1
	.syntax unified
	.thumb
	.thumb_func
	.type	sd_rand_application_vector_get, %function
sd_rand_application_vector_get:
.LFB239:
	.loc 6 436 1
	@ Naked Function: prologue and epilogue provided by programmer.
	@ args = 0, pretend = 0, frame = 0
	@ frame_needed = 0, uses_anonymous_args = 0
	.loc 6 436 1
	.syntax unified
@ 436 "../../../../../../components/softdevice/s132/headers/nrf_soc.h" 1
	svc #49
bx r14
@ 0 "" 2
	.thumb
	.syntax unified
	nop
	mov	r0, r3
.LFE239:
	.size	sd_rand_application_vector_get, .-sd_rand_application_vector_get
	.section	.text.sd_power_reset_reason_get,"ax",%progbits
	.align	1
	.syntax unified
	.thumb
	.thumb_func
	.type	sd_power_reset_reason_get, %function
sd_power_reset_reason_get:
.LFB240:
	.loc 6 444 1
	@ Naked Function: prologue and epilogue provided by programmer.
	@ args = 0, pretend = 0, frame = 0
	@ frame_needed = 0, uses_anonymous_args = 0
	.loc 6 444 1
	.syntax unified
@ 444 "../../../../../../components/softdevice/s132/headers/nrf_soc.h" 1
	svc #52
bx r14
@ 0 "" 2
	.thumb
	.syntax unified
	nop
	mov	r0, r3
.LFE240:
	.size	sd_power_reset_reason_get, .-sd_power_reset_reason_get
	.section	.text.sd_power_reset_reason_clr,"ax",%progbits
	.align	1
	.syntax unified
	.thumb
	.thumb_func
	.type	sd_power_reset_reason_clr, %function
sd_power_reset_reason_clr:
.LFB241:
	.loc 6 452 1
	@ Naked Function: prologue and epilogue provided by programmer.
	@ args = 0, pretend = 0, frame = 0
	@ frame_needed = 0, uses_anonymous_args = 0
	.loc 6 452 1
	.syntax unified
@ 452 "../../../../../../components/softdevice/s132/headers/nrf_soc.h" 1
	svc #53
bx r14
@ 0 "" 2
	.thumb
	.syntax unified
	nop
	mov	r0, r3
.LFE241:
	.size	sd_power_reset_reason_clr, .-sd_power_reset_reason_clr
	.section	.text.sd_power_mode_set,"ax",%progbits
	.align	1
	.syntax unified
	.thumb
	.thumb_func
	.type	sd_power_mode_set, %function
sd_power_mode_set:
.LFB242:
	.loc 6 461 1
	@ Naked Function: prologue and epilogue provided by programmer.
	@ args = 0, pretend = 0, frame = 0
	@ frame_needed = 0, uses_anonymous_args = 0
	.loc 6 461 1
	.syntax unified
@ 461 "../../../../../../components/softdevice/s132/headers/nrf_soc.h" 1
	svc #50
bx r14
@ 0 "" 2
	.thumb
	.syntax unified
	nop
	mov	r0, r3
.LFE242:
	.size	sd_power_mode_set, .-sd_power_mode_set
	.section	.text.sd_power_system_off,"ax",%progbits
	.align	1
	.syntax unified
	.thumb
	.thumb_func
	.type	sd_power_system_off, %function
sd_power_system_off:
.LFB243:
	.loc 6 467 1
	@ Naked Function: prologue and epilogue provided by programmer.
	@ args = 0, pretend = 0, frame = 0
	@ frame_needed = 0, uses_anonymous_args = 0
	.loc 6 467 1
	.syntax unified
@ 467 "../../../../../../components/softdevice/s132/headers/nrf_soc.h" 1
	svc #51
bx r14
@ 0 "" 2
	.thumb
	.syntax unified
	nop
	mov	r0, r3
.LFE243:
	.size	sd_power_system_off, .-sd_power_system_off
	.section	.text.sd_power_pof_enable,"ax",%progbits
	.align	1
	.syntax unified
	.thumb
	.thumb_func
	.type	sd_power_pof_enable, %function
sd_power_pof_enable:
.LFB244:
	.loc 6 478 1
	@ Naked Function: prologue and epilogue provided by programmer.
	@ args = 0, pretend = 0, frame = 0
	@ frame_needed = 0, uses_anonymous_args = 0
	.loc 6 478 1
	.syntax unified
@ 478 "../../../../../../components/softdevice/s132/headers/nrf_soc.h" 1
	svc #54
bx r14
@ 0 "" 2
	.thumb
	.syntax unified
	nop
	mov	r0, r3
.LFE244:
	.size	sd_power_pof_enable, .-sd_power_pof_enable
	.section	.text.sd_power_pof_threshold_set,"ax",%progbits
	.align	1
	.syntax unified
	.thumb
	.thumb_func
	.type	sd_power_pof_threshold_set, %function
sd_power_pof_threshold_set:
.LFB245:
	.loc 6 489 1
	@ Naked Function: prologue and epilogue provided by programmer.
	@ args = 0, pretend = 0, frame = 0
	@ frame_needed = 0, uses_anonymous_args = 0
	.loc 6 489 1
	.syntax unified
@ 489 "../../../../../../components/softdevice/s132/headers/nrf_soc.h" 1
	svc #55
bx r14
@ 0 "" 2
	.thumb
	.syntax unified
	nop
	mov	r0, r3
.LFE245:
	.size	sd_power_pof_threshold_set, .-sd_power_pof_threshold_set
	.section	.text.sd_power_ram_power_set,"ax",%progbits
	.align	1
	.syntax unified
	.thumb
	.thumb_func
	.type	sd_power_ram_power_set, %function
sd_power_ram_power_set:
.LFB246:
	.loc 6 499 1
	@ Naked Function: prologue and epilogue provided by programmer.
	@ args = 0, pretend = 0, frame = 0
	@ frame_needed = 0, uses_anonymous_args = 0
	.loc 6 499 1
	.syntax unified
@ 499 "../../../../../../components/softdevice/s132/headers/nrf_soc.h" 1
	svc #57
bx r14
@ 0 "" 2
	.thumb
	.syntax unified
	nop
	mov	r0, r3
.LFE246:
	.size	sd_power_ram_power_set, .-sd_power_ram_power_set
	.section	.text.sd_power_ram_power_clr,"ax",%progbits
	.align	1
	.syntax unified
	.thumb
	.thumb_func
	.type	sd_power_ram_power_clr, %function
sd_power_ram_power_clr:
.LFB247:
	.loc 6 508 1
	@ Naked Function: prologue and epilogue provided by programmer.
	@ args = 0, pretend = 0, frame = 0
	@ frame_needed = 0, uses_anonymous_args = 0
	.loc 6 508 1
	.syntax unified
@ 508 "../../../../../../components/softdevice/s132/headers/nrf_soc.h" 1
	svc #58
bx r14
@ 0 "" 2
	.thumb
	.syntax unified
	nop
	mov	r0, r3
.LFE247:
	.size	sd_power_ram_power_clr, .-sd_power_ram_power_clr
	.section	.text.sd_power_ram_power_get,"ax",%progbits
	.align	1
	.syntax unified
	.thumb
	.thumb_func
	.type	sd_power_ram_power_get, %function
sd_power_ram_power_get:
.LFB248:
	.loc 6 517 1
	@ Naked Function: prologue and epilogue provided by programmer.
	@ args = 0, pretend = 0, frame = 0
	@ frame_needed = 0, uses_anonymous_args = 0
	.loc 6 517 1
	.syntax unified
@ 517 "../../../../../../components/softdevice/s132/headers/nrf_soc.h" 1
	svc #59
bx r14
@ 0 "" 2
	.thumb
	.syntax unified
	nop
	mov	r0, r3
.LFE248:
	.size	sd_power_ram_power_get, .-sd_power_ram_power_get
	.section	.text.sd_power_gpregret_set,"ax",%progbits
	.align	1
	.syntax unified
	.thumb
	.thumb_func
	.type	sd_power_gpregret_set, %function
sd_power_gpregret_set:
.LFB249:
	.loc 6 526 1
	@ Naked Function: prologue and epilogue provided by programmer.
	@ args = 0, pretend = 0, frame = 0
	@ frame_needed = 0, uses_anonymous_args = 0
	.loc 6 526 1
	.syntax unified
@ 526 "../../../../../../components/softdevice/s132/headers/nrf_soc.h" 1
	svc #60
bx r14
@ 0 "" 2
	.thumb
	.syntax unified
	nop
	mov	r0, r3
.LFE249:
	.size	sd_power_gpregret_set, .-sd_power_gpregret_set
	.section	.text.sd_power_gpregret_clr,"ax",%progbits
	.align	1
	.syntax unified
	.thumb
	.thumb_func
	.type	sd_power_gpregret_clr, %function
sd_power_gpregret_clr:
.LFB250:
	.loc 6 535 1
	@ Naked Function: prologue and epilogue provided by programmer.
	@ args = 0, pretend = 0, frame = 0
	@ frame_needed = 0, uses_anonymous_args = 0
	.loc 6 535 1
	.syntax unified
@ 535 "../../../../../../components/softdevice/s132/headers/nrf_soc.h" 1
	svc #61
bx r14
@ 0 "" 2
	.thumb
	.syntax unified
	nop
	mov	r0, r3
.LFE250:
	.size	sd_power_gpregret_clr, .-sd_power_gpregret_clr
	.section	.text.sd_power_gpregret_get,"ax",%progbits
	.align	1
	.syntax unified
	.thumb
	.thumb_func
	.type	sd_power_gpregret_get, %function
sd_power_gpregret_get:
.LFB251:
	.loc 6 544 1
	@ Naked Function: prologue and epilogue provided by programmer.
	@ args = 0, pretend = 0, frame = 0
	@ frame_needed = 0, uses_anonymous_args = 0
	.loc 6 544 1
	.syntax unified
@ 544 "../../../../../../components/softdevice/s132/headers/nrf_soc.h" 1
	svc #62
bx r14
@ 0 "" 2
	.thumb
	.syntax unified
	nop
	mov	r0, r3
.LFE251:
	.size	sd_power_gpregret_get, .-sd_power_gpregret_get
	.section	.text.sd_power_dcdc_mode_set,"ax",%progbits
	.align	1
	.syntax unified
	.thumb
	.thumb_func
	.type	sd_power_dcdc_mode_set, %function
sd_power_dcdc_mode_set:
.LFB252:
	.loc 6 553 1
	@ Naked Function: prologue and epilogue provided by programmer.
	@ args = 0, pretend = 0, frame = 0
	@ frame_needed = 0, uses_anonymous_args = 0
	.loc 6 553 1
	.syntax unified
@ 553 "../../../../../../components/softdevice/s132/headers/nrf_soc.h" 1
	svc #63
bx r14
@ 0 "" 2
	.thumb
	.syntax unified
	nop
	mov	r0, r3
.LFE252:
	.size	sd_power_dcdc_mode_set, .-sd_power_dcdc_mode_set
	.section	.text.sd_clock_hfclk_request,"ax",%progbits
	.align	1
	.syntax unified
	.thumb
	.thumb_func
	.type	sd_clock_hfclk_request, %function
sd_clock_hfclk_request:
.LFB253:
	.loc 6 566 1
	@ Naked Function: prologue and epilogue provided by programmer.
	@ args = 0, pretend = 0, frame = 0
	@ frame_needed = 0, uses_anonymous_args = 0
	.loc 6 566 1
	.syntax unified
@ 566 "../../../../../../components/softdevice/s132/headers/nrf_soc.h" 1
	svc #66
bx r14
@ 0 "" 2
	.thumb
	.syntax unified
	nop
	mov	r0, r3
.LFE253:
	.size	sd_clock_hfclk_request, .-sd_clock_hfclk_request
	.section	.text.sd_clock_hfclk_release,"ax",%progbits
	.align	1
	.syntax unified
	.thumb
	.thumb_func
	.type	sd_clock_hfclk_release, %function
sd_clock_hfclk_release:
.LFB254:
	.loc 6 577 1
	@ Naked Function: prologue and epilogue provided by programmer.
	@ args = 0, pretend = 0, frame = 0
	@ frame_needed = 0, uses_anonymous_args = 0
	.loc 6 577 1
	.syntax unified
@ 577 "../../../../../../components/softdevice/s132/headers/nrf_soc.h" 1
	svc #67
bx r14
@ 0 "" 2
	.thumb
	.syntax unified
	nop
	mov	r0, r3
.LFE254:
	.size	sd_clock_hfclk_release, .-sd_clock_hfclk_release
	.section	.text.sd_clock_hfclk_is_running,"ax",%progbits
	.align	1
	.syntax unified
	.thumb
	.thumb_func
	.type	sd_clock_hfclk_is_running, %function
sd_clock_hfclk_is_running:
.LFB255:
	.loc 6 588 1
	@ Naked Function: prologue and epilogue provided by programmer.
	@ args = 0, pretend = 0, frame = 0
	@ frame_needed = 0, uses_anonymous_args = 0
	.loc 6 588 1
	.syntax unified
@ 588 "../../../../../../components/softdevice/s132/headers/nrf_soc.h" 1
	svc #68
bx r14
@ 0 "" 2
	.thumb
	.syntax unified
	nop
	mov	r0, r3
.LFE255:
	.size	sd_clock_hfclk_is_running, .-sd_clock_hfclk_is_running
	.section	.text.sd_app_evt_wait,"ax",%progbits
	.align	1
	.syntax unified
	.thumb
	.thumb_func
	.type	sd_app_evt_wait, %function
sd_app_evt_wait:
.LFB256:
	.loc 6 616 1
	@ Naked Function: prologue and epilogue provided by programmer.
	@ args = 0, pretend = 0, frame = 0
	@ frame_needed = 0, uses_anonymous_args = 0
	.loc 6 616 1
	.syntax unified
@ 616 "../../../../../../components/softdevice/s132/headers/nrf_soc.h" 1
	svc #65
bx r14
@ 0 "" 2
	.thumb
	.syntax unified
	nop
	mov	r0, r3
.LFE256:
	.size	sd_app_evt_wait, .-sd_app_evt_wait
	.section	.text.sd_ppi_channel_enable_get,"ax",%progbits
	.align	1
	.syntax unified
	.thumb
	.thumb_func
	.type	sd_ppi_channel_enable_get, %function
sd_ppi_channel_enable_get:
.LFB257:
	.loc 6 624 1
	@ Naked Function: prologue and epilogue provided by programmer.
	@ args = 0, pretend = 0, frame = 0
	@ frame_needed = 0, uses_anonymous_args = 0
	.loc 6 624 1
	.syntax unified
@ 624 "../../../../../../components/softdevice/s132/headers/nrf_soc.h" 1
	svc #32
bx r14
@ 0 "" 2
	.thumb
	.syntax unified
	nop
	mov	r0, r3
.LFE257:
	.size	sd_ppi_channel_enable_get, .-sd_ppi_channel_enable_get
	.section	.text.sd_ppi_channel_enable_set,"ax",%progbits
	.align	1
	.syntax unified
	.thumb
	.thumb_func
	.type	sd_ppi_channel_enable_set, %function
sd_ppi_channel_enable_set:
.LFB258:
	.loc 6 632 1
	@ Naked Function: prologue and epilogue provided by programmer.
	@ args = 0, pretend = 0, frame = 0
	@ frame_needed = 0, uses_anonymous_args = 0
	.loc 6 632 1
	.syntax unified
@ 632 "../../../../../../components/softdevice/s132/headers/nrf_soc.h" 1
	svc #33
bx r14
@ 0 "" 2
	.thumb
	.syntax unified
	nop
	mov	r0, r3
.LFE258:
	.size	sd_ppi_channel_enable_set, .-sd_ppi_channel_enable_set
	.section	.text.sd_ppi_channel_enable_clr,"ax",%progbits
	.align	1
	.syntax unified
	.thumb
	.thumb_func
	.type	sd_ppi_channel_enable_clr, %function
sd_ppi_channel_enable_clr:
.LFB259:
	.loc 6 640 1
	@ Naked Function: prologue and epilogue provided by programmer.
	@ args = 0, pretend = 0, frame = 0
	@ frame_needed = 0, uses_anonymous_args = 0
	.loc 6 640 1
	.syntax unified
@ 640 "../../../../../../components/softdevice/s132/headers/nrf_soc.h" 1
	svc #34
bx r14
@ 0 "" 2
	.thumb
	.syntax unified
	nop
	mov	r0, r3
.LFE259:
	.size	sd_ppi_channel_enable_clr, .-sd_ppi_channel_enable_clr
	.section	.text.sd_ppi_channel_assign,"ax",%progbits
	.align	1
	.syntax unified
	.thumb
	.thumb_func
	.type	sd_ppi_channel_assign, %function
sd_ppi_channel_assign:
.LFB260:
	.loc 6 651 1
	@ Naked Function: prologue and epilogue provided by programmer.
	@ args = 0, pretend = 0, frame = 0
	@ frame_needed = 0, uses_anonymous_args = 0
	.loc 6 651 1
	.syntax unified
@ 651 "../../../../../../components/softdevice/s132/headers/nrf_soc.h" 1
	svc #35
bx r14
@ 0 "" 2
	.thumb
	.syntax unified
	nop
	mov	r0, r3
.LFE260:
	.size	sd_ppi_channel_assign, .-sd_ppi_channel_assign
	.section	.text.sd_ppi_group_task_enable,"ax",%progbits
	.align	1
	.syntax unified
	.thumb
	.thumb_func
	.type	sd_ppi_group_task_enable, %function
sd_ppi_group_task_enable:
.LFB261:
	.loc 6 660 1
	@ Naked Function: prologue and epilogue provided by programmer.
	@ args = 0, pretend = 0, frame = 0
	@ frame_needed = 0, uses_anonymous_args = 0
	.loc 6 660 1
	.syntax unified
@ 660 "../../../../../../components/softdevice/s132/headers/nrf_soc.h" 1
	svc #36
bx r14
@ 0 "" 2
	.thumb
	.syntax unified
	nop
	mov	r0, r3
.LFE261:
	.size	sd_ppi_group_task_enable, .-sd_ppi_group_task_enable
	.section	.text.sd_ppi_group_task_disable,"ax",%progbits
	.align	1
	.syntax unified
	.thumb
	.thumb_func
	.type	sd_ppi_group_task_disable, %function
sd_ppi_group_task_disable:
.LFB262:
	.loc 6 669 1
	@ Naked Function: prologue and epilogue provided by programmer.
	@ args = 0, pretend = 0, frame = 0
	@ frame_needed = 0, uses_anonymous_args = 0
	.loc 6 669 1
	.syntax unified
@ 669 "../../../../../../components/softdevice/s132/headers/nrf_soc.h" 1
	svc #37
bx r14
@ 0 "" 2
	.thumb
	.syntax unified
	nop
	mov	r0, r3
.LFE262:
	.size	sd_ppi_group_task_disable, .-sd_ppi_group_task_disable
	.section	.text.sd_ppi_group_assign,"ax",%progbits
	.align	1
	.syntax unified
	.thumb
	.thumb_func
	.type	sd_ppi_group_assign, %function
sd_ppi_group_assign:
.LFB263:
	.loc 6 679 1
	@ Naked Function: prologue and epilogue provided by programmer.
	@ args = 0, pretend = 0, frame = 0
	@ frame_needed = 0, uses_anonymous_args = 0
	.loc 6 679 1
	.syntax unified
@ 679 "../../../../../../components/softdevice/s132/headers/nrf_soc.h" 1
	svc #38
bx r14
@ 0 "" 2
	.thumb
	.syntax unified
	nop
	mov	r0, r3
.LFE263:
	.size	sd_ppi_group_assign, .-sd_ppi_group_assign
	.section	.text.sd_ppi_group_get,"ax",%progbits
	.align	1
	.syntax unified
	.thumb
	.thumb_func
	.type	sd_ppi_group_get, %function
sd_ppi_group_get:
.LFB264:
	.loc 6 689 1
	@ Naked Function: prologue and epilogue provided by programmer.
	@ args = 0, pretend = 0, frame = 0
	@ frame_needed = 0, uses_anonymous_args = 0
	.loc 6 689 1
	.syntax unified
@ 689 "../../../../../../components/softdevice/s132/headers/nrf_soc.h" 1
	svc #39
bx r14
@ 0 "" 2
	.thumb
	.syntax unified
	nop
	mov	r0, r3
.LFE264:
	.size	sd_ppi_group_get, .-sd_ppi_group_get
	.section	.text.sd_radio_notification_cfg_set,"ax",%progbits
	.align	1
	.syntax unified
	.thumb
	.thumb_func
	.type	sd_radio_notification_cfg_set, %function
sd_radio_notification_cfg_set:
.LFB265:
	.loc 6 720 1
	@ Naked Function: prologue and epilogue provided by programmer.
	@ args = 0, pretend = 0, frame = 0
	@ frame_needed = 0, uses_anonymous_args = 0
	.loc 6 720 1
	.syntax unified
@ 720 "../../../../../../components/softdevice/s132/headers/nrf_soc.h" 1
	svc #69
bx r14
@ 0 "" 2
	.thumb
	.syntax unified
	nop
	mov	r0, r3
.LFE265:
	.size	sd_radio_notification_cfg_set, .-sd_radio_notification_cfg_set
	.section	.text.sd_ecb_block_encrypt,"ax",%progbits
	.align	1
	.syntax unified
	.thumb
	.thumb_func
	.type	sd_ecb_block_encrypt, %function
sd_ecb_block_encrypt:
.LFB266:
	.loc 6 736 1
	@ Naked Function: prologue and epilogue provided by programmer.
	@ args = 0, pretend = 0, frame = 0
	@ frame_needed = 0, uses_anonymous_args = 0
	.loc 6 736 1
	.syntax unified
@ 736 "../../../../../../components/softdevice/s132/headers/nrf_soc.h" 1
	svc #70
bx r14
@ 0 "" 2
	.thumb
	.syntax unified
	nop
	mov	r0, r3
.LFE266:
	.size	sd_ecb_block_encrypt, .-sd_ecb_block_encrypt
	.section	.text.sd_ecb_blocks_encrypt,"ax",%progbits
	.align	1
	.syntax unified
	.thumb
	.thumb_func
	.type	sd_ecb_blocks_encrypt, %function
sd_ecb_blocks_encrypt:
.LFB267:
	.loc 6 753 1
	@ Naked Function: prologue and epilogue provided by programmer.
	@ args = 0, pretend = 0, frame = 0
	@ frame_needed = 0, uses_anonymous_args = 0
	.loc 6 753 1
	.syntax unified
@ 753 "../../../../../../components/softdevice/s132/headers/nrf_soc.h" 1
	svc #71
bx r14
@ 0 "" 2
	.thumb
	.syntax unified
	nop
	mov	r0, r3
.LFE267:
	.size	sd_ecb_blocks_encrypt, .-sd_ecb_blocks_encrypt
	.section	.text.sd_evt_get,"ax",%progbits
	.align	1
	.syntax unified
	.thumb
	.thumb_func
	.type	sd_evt_get, %function
sd_evt_get:
.LFB268:
	.loc 6 764 1
	@ Naked Function: prologue and epilogue provided by programmer.
	@ args = 0, pretend = 0, frame = 0
	@ frame_needed = 0, uses_anonymous_args = 0
	.loc 6 764 1
	.syntax unified
@ 764 "../../../../../../components/softdevice/s132/headers/nrf_soc.h" 1
	svc #75
bx r14
@ 0 "" 2
	.thumb
	.syntax unified
	nop
	mov	r0, r3
.LFE268:
	.size	sd_evt_get, .-sd_evt_get
	.section	.text.sd_temp_get,"ax",%progbits
	.align	1
	.syntax unified
	.thumb
	.thumb_func
	.type	sd_temp_get, %function
sd_temp_get:
.LFB269:
	.loc 6 775 1
	@ Naked Function: prologue and epilogue provided by programmer.
	@ args = 0, pretend = 0, frame = 0
	@ frame_needed = 0, uses_anonymous_args = 0
	.loc 6 775 1
	.syntax unified
@ 775 "../../../../../../components/softdevice/s132/headers/nrf_soc.h" 1
	svc #76
bx r14
@ 0 "" 2
	.thumb
	.syntax unified
	nop
	mov	r0, r3
.LFE269:
	.size	sd_temp_get, .-sd_temp_get
	.section	.text.sd_flash_write,"ax",%progbits
	.align	1
	.syntax unified
	.thumb
	.thumb_func
	.type	sd_flash_write, %function
sd_flash_write:
.LFB270:
	.loc 6 812 1
	@ Naked Function: prologue and epilogue provided by programmer.
	@ args = 0, pretend = 0, frame = 0
	@ frame_needed = 0, uses_anonymous_args = 0
	.loc 6 812 1
	.syntax unified
@ 812 "../../../../../../components/softdevice/s132/headers/nrf_soc.h" 1
	svc #41
bx r14
@ 0 "" 2
	.thumb
	.syntax unified
	nop
	mov	r0, r3
.LFE270:
	.size	sd_flash_write, .-sd_flash_write
	.section	.text.sd_flash_page_erase,"ax",%progbits
	.align	1
	.syntax unified
	.thumb
	.thumb_func
	.type	sd_flash_page_erase, %function
sd_flash_page_erase:
.LFB271:
	.loc 6 844 1
	@ Naked Function: prologue and epilogue provided by programmer.
	@ args = 0, pretend = 0, frame = 0
	@ frame_needed = 0, uses_anonymous_args = 0
	.loc 6 844 1
	.syntax unified
@ 844 "../../../../../../components/softdevice/s132/headers/nrf_soc.h" 1
	svc #40
bx r14
@ 0 "" 2
	.thumb
	.syntax unified
	nop
	mov	r0, r3
.LFE271:
	.size	sd_flash_page_erase, .-sd_flash_page_erase
	.section	.text.sd_flash_protect,"ax",%progbits
	.align	1
	.syntax unified
	.thumb
	.thumb_func
	.type	sd_flash_protect, %function
sd_flash_protect:
.LFB272:
	.loc 6 867 1
	@ Naked Function: prologue and epilogue provided by programmer.
	@ args = 0, pretend = 0, frame = 0
	@ frame_needed = 0, uses_anonymous_args = 0
	.loc 6 867 1
	.syntax unified
@ 867 "../../../../../../components/softdevice/s132/headers/nrf_soc.h" 1
	svc #42
bx r14
@ 0 "" 2
	.thumb
	.syntax unified
	nop
	mov	r0, r3
.LFE272:
	.size	sd_flash_protect, .-sd_flash_protect
	.section	.text.sd_radio_session_open,"ax",%progbits
	.align	1
	.syntax unified
	.thumb
	.thumb_func
	.type	sd_radio_session_open, %function
sd_radio_session_open:
.LFB273:
	.loc 6 889 2
	@ Naked Function: prologue and epilogue provided by programmer.
	@ args = 0, pretend = 0, frame = 0
	@ frame_needed = 0, uses_anonymous_args = 0
	.loc 6 889 2
	.syntax unified
@ 889 "../../../../../../components/softdevice/s132/headers/nrf_soc.h" 1
	svc #72
bx r14
@ 0 "" 2
	.thumb
	.syntax unified
	nop
	mov	r0, r3
.LFE273:
	.size	sd_radio_session_open, .-sd_radio_session_open
	.section	.text.sd_radio_session_close,"ax",%progbits
	.align	1
	.syntax unified
	.thumb
	.thumb_func
	.type	sd_radio_session_close, %function
sd_radio_session_close:
.LFB274:
	.loc 6 902 2
	@ Naked Function: prologue and epilogue provided by programmer.
	@ args = 0, pretend = 0, frame = 0
	@ frame_needed = 0, uses_anonymous_args = 0
	.loc 6 902 2
	.syntax unified
@ 902 "../../../../../../components/softdevice/s132/headers/nrf_soc.h" 1
	svc #73
bx r14
@ 0 "" 2
	.thumb
	.syntax unified
	nop
	mov	r0, r3
.LFE274:
	.size	sd_radio_session_close, .-sd_radio_session_close
	.section	.text.sd_radio_request,"ax",%progbits
	.align	1
	.syntax unified
	.thumb
	.thumb_func
	.type	sd_radio_request, %function
sd_radio_request:
.LFB275:
	.loc 6 934 2
	@ Naked Function: prologue and epilogue provided by programmer.
	@ args = 0, pretend = 0, frame = 0
	@ frame_needed = 0, uses_anonymous_args = 0
	.loc 6 934 2
	.syntax unified
@ 934 "../../../../../../components/softdevice/s132/headers/nrf_soc.h" 1
	svc #74
bx r14
@ 0 "" 2
	.thumb
	.syntax unified
	nop
	mov	r0, r3
.LFE275:
	.size	sd_radio_request, .-sd_radio_request
	.section	.text.sd_protected_register_write,"ax",%progbits
	.align	1
	.syntax unified
	.thumb
	.thumb_func
	.type	sd_protected_register_write, %function
sd_protected_register_write:
.LFB276:
	.loc 6 955 1
	@ Naked Function: prologue and epilogue provided by programmer.
	@ args = 0, pretend = 0, frame = 0
	@ frame_needed = 0, uses_anonymous_args = 0
	.loc 6 955 1
	.syntax unified
@ 955 "../../../../../../components/softdevice/s132/headers/nrf_soc.h" 1
	svc #43
bx r14
@ 0 "" 2
	.thumb
	.syntax unified
	nop
	mov	r0, r3
.LFE276:
	.size	sd_protected_register_write, .-sd_protected_register_write
	.section	.bss.m_bcs,"aw",%nobits
	.align	2
	.type	m_bcs, %object
	.size	m_bcs, 120
m_bcs:
	.space	120
	.section	.text.bcs_internal_state_reset,"ax",%progbits
	.align	1
	.global	bcs_internal_state_reset
	.syntax unified
	.thumb
	.thumb_func
	.type	bcs_internal_state_reset, %function
bcs_internal_state_reset:
.LFB291:
	.file 7 "/Users/waewtasaw/Desktop/ECE_477/v2_latest/Repeat-Rover/firmware/firmware_sdk/components/ble/common/ble_conn_state.c"
	.loc 7 92 1
	@ args = 0, pretend = 0, frame = 0
	@ frame_needed = 0, uses_anonymous_args = 0
	push	{r3, lr}
.LCFI0:
	.loc 7 93 5
	movs	r2, #120
	movs	r1, #0
	ldr	r0, .L124
	bl	memset
	.loc 7 94 1
	nop
	pop	{r3, pc}
.L125:
	.align	2
.L124:
	.word	m_bcs
.LFE291:
	.size	bcs_internal_state_reset, .-bcs_internal_state_reset
	.section	.text.conn_handle_list_get,"ax",%progbits
	.align	1
	.global	conn_handle_list_get
	.syntax unified
	.thumb
	.thumb_func
	.type	conn_handle_list_get, %function
conn_handle_list_get:
.LFB292:
	.loc 7 98 1
	@ args = 0, pretend = 0, frame = 56
	@ frame_needed = 0, uses_anonymous_args = 0
	push	{r4, r5, lr}
.LCFI1:
	sub	sp, sp, #60
.LCFI2:
	str	r0, [sp, #4]
	str	r1, [sp]
	.loc 7 100 26
	movs	r3, #0
	str	r3, [sp, #8]
	.loc 7 102 15
	ldr	r3, [sp]
	.loc 7 102 8
	cmp	r3, #0
	beq	.L127
.LBB2:
	.loc 7 104 23
	movs	r3, #0
	str	r3, [sp, #52]
	.loc 7 104 9
	b	.L128
.L130:
	.loc 7 106 17
	mov	r3, sp
	ldr	r1, [sp, #52]
	mov	r0, r3
	bl	nrf_atflags_get
	mov	r3, r0
	.loc 7 106 16
	cmp	r3, #0
	beq	.L129
	.loc 7 108 63
	ldr	r3, [sp, #8]
	.loc 7 108 67
	adds	r2, r3, #1
	str	r2, [sp, #8]
	.loc 7 108 71
	ldr	r2, [sp, #52]
	uxth	r2, r2
	lsls	r3, r3, #1
	adds	r3, r3, #56
	add	r3, sp, r3
	strh	r2, [r3, #-44]	@ movhi
.L129:
	.loc 7 104 67 discriminator 2
	ldr	r3, [sp, #52]
	adds	r3, r3, #1
	str	r3, [sp, #52]
.L128:
	.loc 7 104 32 discriminator 1
	ldr	r3, [sp, #52]
	cmp	r3, #19
	bls	.L130
.L127:
.LBE2:
	.loc 7 113 12
	ldr	r3, [sp, #4]
	mov	r5, r3
	add	r4, sp, #8
	ldmia	r4!, {r0, r1, r2, r3}
	stmia	r5!, {r0, r1, r2, r3}
	ldmia	r4!, {r0, r1, r2, r3}
	stmia	r5!, {r0, r1, r2, r3}
	ldm	r4, {r0, r1, r2}
	stm	r5, {r0, r1, r2}
	.loc 7 114 1
	ldr	r0, [sp, #4]
	add	sp, sp, #60
.LCFI3:
	@ sp needed
	pop	{r4, r5, pc}
.LFE292:
	.size	conn_handle_list_get, .-conn_handle_list_get
	.section	.text.active_flag_count,"ax",%progbits
	.align	1
	.global	active_flag_count
	.syntax unified
	.thumb
	.thumb_func
	.type	active_flag_count, %function
active_flag_count:
.LFB293:
	.loc 7 118 1
	@ args = 0, pretend = 0, frame = 16
	@ frame_needed = 0, uses_anonymous_args = 0
	push	{lr}
.LCFI4:
	sub	sp, sp, #20
.LCFI5:
	str	r0, [sp, #4]
	.loc 7 119 14
	movs	r3, #0
	str	r3, [sp, #12]
.LBB3:
	.loc 7 121 19
	movs	r3, #0
	str	r3, [sp, #8]
	.loc 7 121 5
	b	.L133
.L135:
	.loc 7 123 13
	add	r3, sp, #4
	ldr	r1, [sp, #8]
	mov	r0, r3
	bl	nrf_atflags_get
	mov	r3, r0
	.loc 7 123 12
	cmp	r3, #0
	beq	.L134
	.loc 7 125 28
	ldr	r3, [sp, #12]
	adds	r3, r3, #1
	str	r3, [sp, #12]
.L134:
	.loc 7 121 63 discriminator 2
	ldr	r3, [sp, #8]
	adds	r3, r3, #1
	str	r3, [sp, #8]
.L133:
	.loc 7 121 28 discriminator 1
	ldr	r3, [sp, #8]
	cmp	r3, #19
	bls	.L135
.LBE3:
	.loc 7 128 12
	ldr	r3, [sp, #12]
	.loc 7 129 1
	mov	r0, r3
	add	sp, sp, #20
.LCFI6:
	@ sp needed
	ldr	pc, [sp], #4
.LFE293:
	.size	active_flag_count, .-active_flag_count
	.section	.text.record_activate,"ax",%progbits
	.align	1
	.syntax unified
	.thumb
	.thumb_func
	.type	record_activate, %function
record_activate:
.LFB294:
	.loc 7 141 1
	@ args = 0, pretend = 0, frame = 8
	@ frame_needed = 0, uses_anonymous_args = 0
	push	{lr}
.LCFI7:
	sub	sp, sp, #12
.LCFI8:
	mov	r3, r0
	strh	r3, [sp, #6]	@ movhi
	.loc 7 142 8
	ldrh	r3, [sp, #6]
	cmp	r3, #19
	bls	.L138
	.loc 7 144 16
	movs	r3, #0
	b	.L139
.L138:
	.loc 7 146 5
	ldrh	r3, [sp, #6]
	mov	r1, r3
	ldr	r0, .L140
	bl	nrf_atflags_set
	.loc 7 147 5
	ldrh	r3, [sp, #6]
	mov	r1, r3
	ldr	r0, .L140+4
	bl	nrf_atflags_set
	.loc 7 148 12
	movs	r3, #1
.L139:
	.loc 7 149 1
	mov	r0, r3
	add	sp, sp, #12
.LCFI9:
	@ sp needed
	ldr	pc, [sp], #4
.L141:
	.align	2
.L140:
	.word	m_bcs+8
	.word	m_bcs+4
.LFE294:
	.size	record_activate, .-record_activate
	.section	.text.record_invalidate,"ax",%progbits
	.align	1
	.syntax unified
	.thumb
	.thumb_func
	.type	record_invalidate, %function
record_invalidate:
.LFB295:
	.loc 7 157 1
	@ args = 0, pretend = 0, frame = 16
	@ frame_needed = 0, uses_anonymous_args = 0
	push	{lr}
.LCFI10:
	sub	sp, sp, #20
.LCFI11:
	mov	r3, r0
	strh	r3, [sp, #6]	@ movhi
.LBB4:
	.loc 7 158 19
	movs	r3, #0
	str	r3, [sp, #12]
	.loc 7 158 5
	b	.L143
.L144:
	.loc 7 160 9 discriminator 3
	ldr	r3, [sp, #12]
	lsls	r3, r3, #2
	ldr	r2, .L145
	add	r3, r3, r2
	adds	r3, r3, #4
	ldrh	r2, [sp, #6]
	mov	r1, r2
	mov	r0, r3
	bl	nrf_atflags_clear
	.loc 7 158 60 discriminator 3
	ldr	r3, [sp, #12]
	adds	r3, r3, #1
	str	r3, [sp, #12]
.L143:
	.loc 7 158 28 discriminator 1
	ldr	r3, [sp, #12]
	cmp	r3, #28
	bls	.L144
.LBE4:
	.loc 7 162 1
	nop
	nop
	add	sp, sp, #20
.LCFI12:
	@ sp needed
	ldr	pc, [sp], #4
.L146:
	.align	2
.L145:
	.word	m_bcs
.LFE295:
	.size	record_invalidate, .-record_invalidate
	.section	.text.record_set_disconnected,"ax",%progbits
	.align	1
	.syntax unified
	.thumb
	.thumb_func
	.type	record_set_disconnected, %function
record_set_disconnected:
.LFB296:
	.loc 7 170 1
	@ args = 0, pretend = 0, frame = 8
	@ frame_needed = 0, uses_anonymous_args = 0
	push	{lr}
.LCFI13:
	sub	sp, sp, #12
.LCFI14:
	mov	r3, r0
	strh	r3, [sp, #6]	@ movhi
	.loc 7 171 5
	ldrh	r3, [sp, #6]
	mov	r1, r3
	ldr	r0, .L148
	bl	nrf_atflags_clear
	.loc 7 172 1
	nop
	add	sp, sp, #12
.LCFI15:
	@ sp needed
	ldr	pc, [sp], #4
.L149:
	.align	2
.L148:
	.word	m_bcs+8
.LFE296:
	.size	record_set_disconnected, .-record_set_disconnected
	.section	.text.record_purge_disconnected,"ax",%progbits
	.align	1
	.syntax unified
	.thumb
	.thumb_func
	.type	record_purge_disconnected, %function
record_purge_disconnected:
.LFB297:
	.loc 7 179 1
	@ args = 0, pretend = 0, frame = 104
	@ frame_needed = 0, uses_anonymous_args = 0
	push	{r4, r5, lr}
.LCFI16:
	sub	sp, sp, #108
.LCFI17:
	.loc 7 180 72
	ldr	r3, .L153
	ldr	r3, [r3, #8]
	.loc 7 180 60
	mvns	r3, r3
	.loc 7 180 39
	str	r3, [sp, #96]
	.loc 7 183 5
	ldr	r3, .L153
	ldr	r2, [r3, #4]
	add	r3, sp, #96
	mov	r1, r2
	mov	r0, r3
	bl	nrf_atomic_u32_and
	.loc 7 184 27
	ldr	r2, [sp, #96]
	mov	r3, sp
	mov	r1, r2
	mov	r0, r3
	bl	conn_handle_list_get
	add	r4, sp, #52
	mov	r5, sp
	ldmia	r5!, {r0, r1, r2, r3}
	stmia	r4!, {r0, r1, r2, r3}
	ldmia	r5!, {r0, r1, r2, r3}
	stmia	r4!, {r0, r1, r2, r3}
	ldm	r5, {r0, r1, r2}
	stm	r4, {r0, r1, r2}
.LBB5:
	.loc 7 186 19
	movs	r3, #0
	str	r3, [sp, #100]
	.loc 7 186 5
	b	.L151
.L152:
	.loc 7 188 9 discriminator 3
	ldr	r3, [sp, #100]
	lsls	r3, r3, #1
	adds	r3, r3, #104
	add	r3, sp, r3
	ldrh	r3, [r3, #-48]
	mov	r0, r3
	bl	record_invalidate
	.loc 7 186 54 discriminator 3
	ldr	r3, [sp, #100]
	adds	r3, r3, #1
	str	r3, [sp, #100]
.L151:
	.loc 7 186 47 discriminator 1
	ldr	r3, [sp, #52]
	.loc 7 186 28 discriminator 1
	ldr	r2, [sp, #100]
	cmp	r2, r3
	bcc	.L152
.LBE5:
	.loc 7 190 1
	nop
	nop
	add	sp, sp, #108
.LCFI18:
	@ sp needed
	pop	{r4, r5, pc}
.L154:
	.align	2
.L153:
	.word	m_bcs
.LFE297:
	.size	record_purge_disconnected, .-record_purge_disconnected
	.section	.text.user_flag_is_acquired,"ax",%progbits
	.align	1
	.syntax unified
	.thumb
	.thumb_func
	.type	user_flag_is_acquired, %function
user_flag_is_acquired:
.LFB298:
	.loc 7 200 1
	@ args = 0, pretend = 0, frame = 8
	@ frame_needed = 0, uses_anonymous_args = 0
	push	{lr}
.LCFI19:
	sub	sp, sp, #12
.LCFI20:
	mov	r3, r0
	strb	r3, [sp, #7]
	.loc 7 201 12
	ldrb	r3, [sp, #7]	@ zero_extendqisi2
	mov	r1, r3
	ldr	r0, .L157
	bl	nrf_atflags_get
	mov	r3, r0
	.loc 7 202 1
	mov	r0, r3
	add	sp, sp, #12
.LCFI21:
	@ sp needed
	ldr	pc, [sp], #4
.L158:
	.align	2
.L157:
	.word	m_bcs
.LFE298:
	.size	user_flag_is_acquired, .-user_flag_is_acquired
	.section	.text.ble_conn_state_init,"ax",%progbits
	.align	1
	.global	ble_conn_state_init
	.syntax unified
	.thumb
	.thumb_func
	.type	ble_conn_state_init, %function
ble_conn_state_init:
.LFB299:
	.loc 7 206 1
	@ args = 0, pretend = 0, frame = 0
	@ frame_needed = 0, uses_anonymous_args = 0
	push	{r3, lr}
.LCFI22:
	.loc 7 207 5
	bl	bcs_internal_state_reset
	.loc 7 208 1
	nop
	pop	{r3, pc}
.LFE299:
	.size	ble_conn_state_init, .-ble_conn_state_init
	.section .rodata
	.align	2
.LC0:
	.ascii	"/Users/waewtasaw/Desktop/ECE_477/v2_latest/Repeat-R"
	.ascii	"over/firmware/firmware_sdk/components/ble/common/bl"
	.ascii	"e_conn_state.c\000"
	.section	.text.ble_evt_handler,"ax",%progbits
	.align	1
	.syntax unified
	.thumb
	.thumb_func
	.type	ble_evt_handler, %function
ble_evt_handler:
.LFB300:
	.loc 7 217 1
	@ args = 0, pretend = 0, frame = 16
	@ frame_needed = 0, uses_anonymous_args = 0
	push	{lr}
.LCFI23:
	sub	sp, sp, #20
.LCFI24:
	str	r0, [sp, #4]
	str	r1, [sp]
	.loc 7 218 14
	ldr	r3, [sp, #4]
	ldrh	r3, [r3, #4]	@ movhi
	strh	r3, [sp, #14]	@ movhi
	.loc 7 219 30
	ldr	r3, [sp, #4]
	ldrh	r3, [r3]
	.loc 7 219 5
	cmp	r3, #26
	beq	.L161
	cmp	r3, #26
	bgt	.L170
	cmp	r3, #16
	beq	.L163
	cmp	r3, #17
	beq	.L164
	.loc 7 266 1
	b	.L170
.L163:
	.loc 7 222 13
	bl	record_purge_disconnected
	.loc 7 224 19
	ldrh	r3, [sp, #14]
	mov	r0, r3
	bl	record_activate
	mov	r3, r0
	.loc 7 224 18
	eor	r3, r3, #1
	uxtb	r3, r3
	.loc 7 224 16
	cmp	r3, #0
	beq	.L165
	.loc 7 227 17
	ldr	r2, .L172
	movs	r1, #227
	movs	r0, #4
	bl	app_error_handler
	.loc 7 235 13
	b	.L171
.L165:
	.loc 7 229 62
	ldr	r3, [sp, #4]
	ldrb	r3, [r3, #15]	@ zero_extendqisi2
	.loc 7 229 21
	cmp	r3, #1
	beq	.L171
	.loc 7 232 17
	ldrh	r3, [sp, #14]
	mov	r1, r3
	ldr	r0, .L172+4
	bl	nrf_atflags_set
	.loc 7 235 13
	b	.L171
.L164:
	.loc 7 238 13
	ldrh	r3, [sp, #14]
	mov	r0, r3
	bl	record_set_disconnected
	.loc 7 239 13
	b	.L162
.L161:
.LBB6:
	.loc 7 243 94
	ldr	r3, [sp, #4]
	ldrb	r3, [r3, #8]
	ubfx	r3, r3, #4, #4
	uxtb	r3, r3
	.loc 7 243 18
	cmp	r3, #1
	ite	hi
	movhi	r3, #1
	movls	r3, #0
	strb	r3, [sp, #13]
	.loc 7 244 94
	ldr	r3, [sp, #4]
	ldrb	r3, [r3, #8]
	ubfx	r3, r3, #4, #4
	uxtb	r3, r3
	.loc 7 244 18
	cmp	r3, #2
	ite	hi
	movhi	r3, #1
	movls	r3, #0
	strb	r3, [sp, #12]
	.loc 7 246 16
	ldrb	r3, [sp, #13]	@ zero_extendqisi2
	cmp	r3, #0
	beq	.L167
	.loc 7 248 17
	ldrh	r3, [sp, #14]
	mov	r1, r3
	ldr	r0, .L172+8
	bl	nrf_atflags_set
	.loc 7 249 20
	ldrb	r3, [sp, #12]	@ zero_extendqisi2
	cmp	r3, #0
	beq	.L168
	.loc 7 251 21
	ldrh	r3, [sp, #14]
	mov	r1, r3
	ldr	r0, .L172+12
	bl	nrf_atflags_set
	.loc 7 263 13
	b	.L162
.L168:
	.loc 7 255 21
	ldrh	r3, [sp, #14]
	mov	r1, r3
	ldr	r0, .L172+12
	bl	nrf_atflags_clear
	.loc 7 263 13
	b	.L162
.L167:
	.loc 7 260 17
	ldrh	r3, [sp, #14]
	mov	r1, r3
	ldr	r0, .L172+8
	bl	nrf_atflags_clear
	.loc 7 261 17
	ldrh	r3, [sp, #14]
	mov	r1, r3
	ldr	r0, .L172+12
	bl	nrf_atflags_clear
	.loc 7 263 13
	b	.L162
.L171:
.LBE6:
	.loc 7 235 13
	nop
.L162:
.L170:
	.loc 7 266 1
	nop
	add	sp, sp, #20
.LCFI25:
	@ sp needed
	ldr	pc, [sp], #4
.L173:
	.align	2
.L172:
	.word	.LC0
	.word	m_bcs+12
	.word	m_bcs+16
	.word	m_bcs+20
.LFE300:
	.size	ble_evt_handler, .-ble_evt_handler
	.section	.sdh_ble_observers0,"a"
	.align	2
	.type	m_ble_evt_observer, %object
	.size	m_ble_evt_observer, 8
m_ble_evt_observer:
	.word	ble_evt_handler
	.word	0
	.section	.text.ble_conn_state_valid,"ax",%progbits
	.align	1
	.global	ble_conn_state_valid
	.syntax unified
	.thumb
	.thumb_func
	.type	ble_conn_state_valid, %function
ble_conn_state_valid:
.LFB301:
	.loc 7 272 1
	@ args = 0, pretend = 0, frame = 8
	@ frame_needed = 0, uses_anonymous_args = 0
	push	{lr}
.LCFI26:
	sub	sp, sp, #12
.LCFI27:
	mov	r3, r0
	strh	r3, [sp, #6]	@ movhi
	.loc 7 273 8
	ldrh	r3, [sp, #6]
	cmp	r3, #19
	bls	.L175
	.loc 7 275 16
	movs	r3, #0
	b	.L176
.L175:
	.loc 7 277 12
	ldrh	r3, [sp, #6]
	mov	r1, r3
	ldr	r0, .L177
	bl	nrf_atflags_get
	mov	r3, r0
.L176:
	.loc 7 278 1
	mov	r0, r3
	add	sp, sp, #12
.LCFI28:
	@ sp needed
	ldr	pc, [sp], #4
.L178:
	.align	2
.L177:
	.word	m_bcs+4
.LFE301:
	.size	ble_conn_state_valid, .-ble_conn_state_valid
	.section	.text.ble_conn_state_role,"ax",%progbits
	.align	1
	.global	ble_conn_state_role
	.syntax unified
	.thumb
	.thumb_func
	.type	ble_conn_state_role, %function
ble_conn_state_role:
.LFB302:
	.loc 7 282 1
	@ args = 0, pretend = 0, frame = 16
	@ frame_needed = 0, uses_anonymous_args = 0
	push	{lr}
.LCFI29:
	sub	sp, sp, #20
.LCFI30:
	mov	r3, r0
	strh	r3, [sp, #6]	@ movhi
	.loc 7 283 13
	movs	r3, #0
	strb	r3, [sp, #15]
	.loc 7 285 9
	ldrh	r3, [sp, #6]
	mov	r0, r3
	bl	ble_conn_state_valid
	mov	r3, r0
	.loc 7 285 8
	cmp	r3, #0
	beq	.L180
.LBB7:
	.loc 7 288 24
	ldrh	r3, [sp, #6]
	mov	r1, r3
	ldr	r0, .L184
	bl	nrf_atflags_get
	mov	r3, r0
	strb	r3, [sp, #14]
	.loc 7 289 14
	ldrb	r3, [sp, #14]	@ zero_extendqisi2
	cmp	r3, #0
	beq	.L181
	.loc 7 289 14 is_stmt 0 discriminator 1
	movs	r3, #2
	b	.L182
.L181:
	.loc 7 289 14 discriminator 2
	movs	r3, #1
.L182:
	.loc 7 289 14 discriminator 4
	strb	r3, [sp, #15]
.L180:
.LBE7:
	.loc 7 295 12 is_stmt 1
	ldrb	r3, [sp, #15]	@ zero_extendqisi2
	.loc 7 296 1
	mov	r0, r3
	add	sp, sp, #20
.LCFI31:
	@ sp needed
	ldr	pc, [sp], #4
.L185:
	.align	2
.L184:
	.word	m_bcs+12
.LFE302:
	.size	ble_conn_state_role, .-ble_conn_state_role
	.section	.text.ble_conn_state_status,"ax",%progbits
	.align	1
	.global	ble_conn_state_status
	.syntax unified
	.thumb
	.thumb_func
	.type	ble_conn_state_status, %function
ble_conn_state_status:
.LFB303:
	.loc 7 300 1
	@ args = 0, pretend = 0, frame = 16
	@ frame_needed = 0, uses_anonymous_args = 0
	push	{lr}
.LCFI32:
	sub	sp, sp, #20
.LCFI33:
	mov	r3, r0
	strh	r3, [sp, #6]	@ movhi
	.loc 7 301 29
	movs	r3, #0
	strb	r3, [sp, #15]
	.loc 7 303 9
	ldrh	r3, [sp, #6]
	mov	r0, r3
	bl	ble_conn_state_valid
	mov	r3, r0
	.loc 7 303 8
	cmp	r3, #0
	beq	.L187
.LBB8:
	.loc 7 305 26
	ldrh	r3, [sp, #6]
	mov	r1, r3
	ldr	r0, .L191
	bl	nrf_atflags_get
	mov	r3, r0
	strb	r3, [sp, #14]
	.loc 7 306 61
	ldrb	r3, [sp, #14]	@ zero_extendqisi2
	cmp	r3, #0
	beq	.L188
	.loc 7 306 61 is_stmt 0 discriminator 1
	movs	r3, #2
	b	.L189
.L188:
	.loc 7 306 61 discriminator 2
	movs	r3, #1
.L189:
	.loc 7 306 21 is_stmt 1 discriminator 4
	strb	r3, [sp, #15]
.L187:
.LBE8:
	.loc 7 309 12
	ldrb	r3, [sp, #15]	@ zero_extendqisi2
	.loc 7 310 1
	mov	r0, r3
	add	sp, sp, #20
.LCFI34:
	@ sp needed
	ldr	pc, [sp], #4
.L192:
	.align	2
.L191:
	.word	m_bcs+8
.LFE303:
	.size	ble_conn_state_status, .-ble_conn_state_status
	.section	.text.ble_conn_state_encrypted,"ax",%progbits
	.align	1
	.global	ble_conn_state_encrypted
	.syntax unified
	.thumb
	.thumb_func
	.type	ble_conn_state_encrypted, %function
ble_conn_state_encrypted:
.LFB304:
	.loc 7 314 1
	@ args = 0, pretend = 0, frame = 8
	@ frame_needed = 0, uses_anonymous_args = 0
	push	{lr}
.LCFI35:
	sub	sp, sp, #12
.LCFI36:
	mov	r3, r0
	strh	r3, [sp, #6]	@ movhi
	.loc 7 315 9
	ldrh	r3, [sp, #6]
	mov	r0, r3
	bl	ble_conn_state_valid
	mov	r3, r0
	.loc 7 315 8
	cmp	r3, #0
	beq	.L194
	.loc 7 317 16
	ldrh	r3, [sp, #6]
	mov	r1, r3
	ldr	r0, .L196
	bl	nrf_atflags_get
	mov	r3, r0
	b	.L195
.L194:
	.loc 7 319 12
	movs	r3, #0
.L195:
	.loc 7 320 1
	mov	r0, r3
	add	sp, sp, #12
.LCFI37:
	@ sp needed
	ldr	pc, [sp], #4
.L197:
	.align	2
.L196:
	.word	m_bcs+16
.LFE304:
	.size	ble_conn_state_encrypted, .-ble_conn_state_encrypted
	.section	.text.ble_conn_state_mitm_protected,"ax",%progbits
	.align	1
	.global	ble_conn_state_mitm_protected
	.syntax unified
	.thumb
	.thumb_func
	.type	ble_conn_state_mitm_protected, %function
ble_conn_state_mitm_protected:
.LFB305:
	.loc 7 324 1
	@ args = 0, pretend = 0, frame = 8
	@ frame_needed = 0, uses_anonymous_args = 0
	push	{lr}
.LCFI38:
	sub	sp, sp, #12
.LCFI39:
	mov	r3, r0
	strh	r3, [sp, #6]	@ movhi
	.loc 7 325 9
	ldrh	r3, [sp, #6]
	mov	r0, r3
	bl	ble_conn_state_valid
	mov	r3, r0
	.loc 7 325 8
	cmp	r3, #0
	beq	.L199
	.loc 7 327 16
	ldrh	r3, [sp, #6]
	mov	r1, r3
	ldr	r0, .L201
	bl	nrf_atflags_get
	mov	r3, r0
	b	.L200
.L199:
	.loc 7 329 12
	movs	r3, #0
.L200:
	.loc 7 330 1
	mov	r0, r3
	add	sp, sp, #12
.LCFI40:
	@ sp needed
	ldr	pc, [sp], #4
.L202:
	.align	2
.L201:
	.word	m_bcs+20
.LFE305:
	.size	ble_conn_state_mitm_protected, .-ble_conn_state_mitm_protected
	.section	.text.ble_conn_state_conn_count,"ax",%progbits
	.align	1
	.global	ble_conn_state_conn_count
	.syntax unified
	.thumb
	.thumb_func
	.type	ble_conn_state_conn_count, %function
ble_conn_state_conn_count:
.LFB306:
	.loc 7 334 1
	@ args = 0, pretend = 0, frame = 0
	@ frame_needed = 0, uses_anonymous_args = 0
	push	{r3, lr}
.LCFI41:
	.loc 7 335 41
	ldr	r3, .L205
	ldr	r3, [r3, #8]
	.loc 7 335 12
	mov	r0, r3
	bl	active_flag_count
	mov	r3, r0
	.loc 7 336 1
	mov	r0, r3
	pop	{r3, pc}
.L206:
	.align	2
.L205:
	.word	m_bcs
.LFE306:
	.size	ble_conn_state_conn_count, .-ble_conn_state_conn_count
	.section	.text.ble_conn_state_central_conn_count,"ax",%progbits
	.align	1
	.global	ble_conn_state_central_conn_count
	.syntax unified
	.thumb
	.thumb_func
	.type	ble_conn_state_central_conn_count, %function
ble_conn_state_central_conn_count:
.LFB307:
	.loc 7 340 1
	@ args = 0, pretend = 0, frame = 8
	@ frame_needed = 0, uses_anonymous_args = 0
	push	{lr}
.LCFI42:
	sub	sp, sp, #12
.LCFI43:
	.loc 7 341 51
	ldr	r3, .L209
	ldr	r3, [r3, #12]
	.loc 7 341 19
	str	r3, [sp, #4]
	.loc 7 342 5
	ldr	r3, .L209
	ldr	r2, [r3, #8]
	add	r3, sp, #4
	mov	r1, r2
	mov	r0, r3
	bl	nrf_atomic_u32_and
	.loc 7 344 12
	ldr	r3, [sp, #4]
	mov	r0, r3
	bl	active_flag_count
	mov	r3, r0
	.loc 7 345 1
	mov	r0, r3
	add	sp, sp, #12
.LCFI44:
	@ sp needed
	ldr	pc, [sp], #4
.L210:
	.align	2
.L209:
	.word	m_bcs
.LFE307:
	.size	ble_conn_state_central_conn_count, .-ble_conn_state_central_conn_count
	.section	.text.ble_conn_state_peripheral_conn_count,"ax",%progbits
	.align	1
	.global	ble_conn_state_peripheral_conn_count
	.syntax unified
	.thumb
	.thumb_func
	.type	ble_conn_state_peripheral_conn_count, %function
ble_conn_state_peripheral_conn_count:
.LFB308:
	.loc 7 349 1
	@ args = 0, pretend = 0, frame = 8
	@ frame_needed = 0, uses_anonymous_args = 0
	push	{lr}
.LCFI45:
	sub	sp, sp, #12
.LCFI46:
	.loc 7 350 55
	ldr	r3, .L213
	ldr	r3, [r3, #12]
	.loc 7 350 43
	mvns	r3, r3
	.loc 7 350 19
	str	r3, [sp, #4]
	.loc 7 351 5
	ldr	r3, .L213
	ldr	r2, [r3, #8]
	add	r3, sp, #4
	mov	r1, r2
	mov	r0, r3
	bl	nrf_atomic_u32_and
	.loc 7 353 12
	ldr	r3, [sp, #4]
	mov	r0, r3
	bl	active_flag_count
	mov	r3, r0
	.loc 7 354 1
	mov	r0, r3
	add	sp, sp, #12
.LCFI47:
	@ sp needed
	ldr	pc, [sp], #4
.L214:
	.align	2
.L213:
	.word	m_bcs
.LFE308:
	.size	ble_conn_state_peripheral_conn_count, .-ble_conn_state_peripheral_conn_count
	.section	.text.ble_conn_state_conn_handles,"ax",%progbits
	.align	1
	.global	ble_conn_state_conn_handles
	.syntax unified
	.thumb
	.thumb_func
	.type	ble_conn_state_conn_handles, %function
ble_conn_state_conn_handles:
.LFB309:
	.loc 7 358 1
	@ args = 0, pretend = 0, frame = 8
	@ frame_needed = 0, uses_anonymous_args = 0
	push	{lr}
.LCFI48:
	sub	sp, sp, #12
.LCFI49:
	str	r0