	.cpu cortex-m4
	.arch armv7e-m
	.fpu fpv4-sp-d16
	.eabi_attribute 27, 1
	.eabi_attribute 28, 1
	.eabi_attribute 20, 1
	.eabi_attribute 21, 1
	.eabi_attribute 23, 3
	.eabi_attribute 24, 1
	.eabi_attribute 25, 1
	.eabi_attribute 26, 1
	.eabi_attribute 30, 6
	.eabi_attribute 34, 1
	.eabi_attribute 38, 1
	.eabi_attribute 18, 4
	.file	"gatt_cache_manager.c"
	.text
.Ltext0:
	.section	.text.sd_ble_gap_addr_set,"ax",%progbits
	.align	1
	.syntax unified
	.thumb
	.thumb_func
	.type	sd_ble_gap_addr_set, %function
sd_ble_gap_addr_set:
.LFB153:
	.file 1 "../../../../../../components/softdevice/s132/headers/ble_gap.h"
	.loc 1 1636 1
	@ Naked Function: prologue and epilogue provided by programmer.
	@ args = 0, pretend = 0, frame = 0
	@ frame_needed = 0, uses_anonymous_args = 0
	.loc 1 1636 1
	.syntax unified
@ 1636 "../../../../../../components/softdevice/s132/headers/ble_gap.h" 1
	svc #108
bx r14
@ 0 "" 2
	.thumb
	.syntax unified
	nop
	mov	r0, r3
.LFE153:
	.size	sd_ble_gap_addr_set, .-sd_ble_gap_addr_set
	.section	.text.sd_ble_gap_addr_get,"ax",%progbits
	.align	1
	.syntax unified
	.thumb
	.thumb_func
	.type	sd_ble_gap_addr_get, %function
sd_ble_gap_addr_get:
.LFB154:
	.loc 1 1649 1
	@ Naked Function: prologue and epilogue provided by programmer.
	@ args = 0, pretend = 0, frame = 0
	@ frame_needed = 0, uses_anonymous_args = 0
	.loc 1 1649 1
	.syntax unified
@ 1649 "../../../../../../components/softdevice/s132/headers/ble_gap.h" 1
	svc #109
bx r14
@ 0 "" 2
	.thumb
	.syntax unified
	nop
	mov	r0, r3
.LFE154:
	.size	sd_ble_gap_addr_get, .-sd_ble_gap_addr_get
	.section	.text.sd_ble_gap_whitelist_set,"ax",%progbits
	.align	1
	.syntax unified
	.thumb
	.thumb_func
	.type	sd_ble_gap_whitelist_set, %function
sd_ble_gap_whitelist_set:
.LFB155:
	.loc 1 1675 1
	@ Naked Function: prologue and epilogue provided by programmer.
	@ args = 0, pretend = 0, frame = 0
	@ frame_needed = 0, uses_anonymous_args = 0
	.loc 1 1675 1
	.syntax unified
@ 1675 "../../../../../../components/softdevice/s132/headers/ble_gap.h" 1
	svc #110
bx r14
@ 0 "" 2
	.thumb
	.syntax unified
	nop
	mov	r0, r3
.LFE155:
	.size	sd_ble_gap_whitelist_set, .-sd_ble_gap_whitelist_set
	.section	.text.sd_ble_gap_device_identities_set,"ax",%progbits
	.align	1
	.syntax unified
	.thumb
	.thumb_func
	.type	sd_ble_gap_device_identities_set, %function
sd_ble_gap_device_identities_set:
.LFB156:
	.loc 1 1706 1
	@ Naked Function: prologue and epilogue provided by programmer.
	@ args = 0, pretend = 0, frame = 0
	@ frame_needed = 0, uses_anonymous_args = 0
	.loc 1 1706 1
	.syntax unified
@ 1706 "../../../../../../components/softdevice/s132/headers/ble_gap.h" 1
	svc #111
bx r14
@ 0 "" 2
	.thumb
	.syntax unified
	nop
	mov	r0, r3
.LFE156:
	.size	sd_ble_gap_device_identities_set, .-sd_ble_gap_device_identities_set
	.section	.text.sd_ble_gap_privacy_set,"ax",%progbits
	.align	1
	.syntax unified
	.thumb
	.thumb_func
	.type	sd_ble_gap_privacy_set, %function
sd_ble_gap_privacy_set:
.LFB157:
	.loc 1 1730 1
	@ Naked Function: prologue and epilogue provided by programmer.
	@ args = 0, pretend = 0, frame = 0
	@ frame_needed = 0, uses_anonymous_args = 0
	.loc 1 1730 1
	.syntax unified
@ 1730 "../../../../../../components/softdevice/s132/headers/ble_gap.h" 1
	svc #112
bx r14
@ 0 "" 2
	.thumb
	.syntax unified
	nop
	mov	r0, r3
.LFE157:
	.size	sd_ble_gap_privacy_set, .-sd_ble_gap_privacy_set
	.section	.text.sd_ble_gap_privacy_get,"ax",%progbits
	.align	1
	.syntax unified
	.thumb
	.thumb_func
	.type	sd_ble_gap_privacy_get, %function
sd_ble_gap_privacy_get:
.LFB158:
	.loc 1 1744 1
	@ Naked Function: prologue and epilogue provided by programmer.
	@ args = 0, pretend = 0, frame = 0
	@ frame_needed = 0, uses_anonymous_args = 0
	.loc 1 1744 1
	.syntax unified
@ 1744 "../../../../../../components/softdevice/s132/headers/ble_gap.h" 1
	svc #113
bx r14
@ 0 "" 2
	.thumb
	.syntax unified
	nop
	mov	r0, r3
.LFE158:
	.size	sd_ble_gap_privacy_get, .-sd_ble_gap_privacy_get
	.section	.text.sd_ble_gap_adv_set_configure,"ax",%progbits
	.align	1
	.syntax unified
	.thumb
	.thumb_func
	.type	sd_ble_gap_adv_set_configure, %function
sd_ble_gap_adv_set_configure:
.LFB159:
	.loc 1 1791 1
	@ Naked Function: prologue and epilogue provided by programmer.
	@ args = 0, pretend = 0, frame = 0
	@ frame_needed = 0, uses_anonymous_args = 0
	.loc 1 1791 1
	.syntax unified
@ 1791 "../../../../../../components/softdevice/s132/headers/ble_gap.h" 1
	svc #114
bx r14
@ 0 "" 2
	.thumb
	.syntax unified
	nop
	mov	r0, r3
.LFE159:
	.size	sd_ble_gap_adv_set_configure, .-sd_ble_gap_adv_set_configure
	.section	.text.sd_ble_gap_adv_start,"ax",%progbits
	.align	1
	.syntax unified
	.thumb
	.thumb_func
	.type	sd_ble_gap_adv_start, %function
sd_ble_gap_adv_start:
.LFB160:
	.loc 1 1835 1
	@ Naked Function: prologue and epilogue provided by programmer.
	@ args = 0, pretend = 0, frame = 0
	@ frame_needed = 0, uses_anonymous_args = 0
	.loc 1 1835 1
	.syntax unified
@ 1835 "../../../../../../components/softdevice/s132/headers/ble_gap.h" 1
	svc #115
bx r14
@ 0 "" 2
	.thumb
	.syntax unified
	nop
	mov	r0, r3
.LFE160:
	.size	sd_ble_gap_adv_start, .-sd_ble_gap_adv_start
	.section	.text.sd_ble_gap_adv_stop,"ax",%progbits
	.align	1
	.syntax unified
	.thumb
	.thumb_func
	.type	sd_ble_gap_adv_stop, %function
sd_ble_gap_adv_stop:
.LFB161:
	.loc 1 1851 1
	@ Naked Function: prologue and epilogue provided by programmer.
	@ args = 0, pretend = 0, frame = 0
	@ frame_needed = 0, uses_anonymous_args = 0
	.loc 1 1851 1
	.syntax unified
@ 1851 "../../../../../../components/softdevice/s132/headers/ble_gap.h" 1
	svc #116
bx r14
@ 0 "" 2
	.thumb
	.syntax unified
	nop
	mov	r0, r3
.LFE161:
	.size	sd_ble_gap_adv_stop, .-sd_ble_gap_adv_stop
	.section	.text.sd_ble_gap_conn_param_update,"ax",%progbits
	.align	1
	.syntax unified
	.thumb
	.thumb_func
	.type	sd_ble_gap_conn_param_update, %function
sd_ble_gap_conn_param_update:
.LFB162:
	.loc 1 1889 1
	@ Naked Function: prologue and epilogue provided by programmer.
	@ args = 0, pretend = 0, frame = 0
	@ frame_needed = 0, uses_anonymous_args = 0
	.loc 1 1889 1
	.syntax unified
@ 1889 "../../../../../../components/softdevice/s132/headers/ble_gap.h" 1
	svc #117
bx r14
@ 0 "" 2
	.thumb
	.syntax unified
	nop
	mov	r0, r3
.LFE162:
	.size	sd_ble_gap_conn_param_update, .-sd_ble_gap_conn_param_update
	.section	.text.sd_ble_gap_disconnect,"ax",%progbits
	.align	1
	.syntax unified
	.thumb
	.thumb_func
	.type	sd_ble_gap_disconnect, %function
sd_ble_gap_disconnect:
.LFB163:
	.loc 1 1913 1
	@ Naked Function: prologue and epilogue provided by programmer.
	@ args = 0, pretend = 0, frame = 0
	@ frame_needed = 0, uses_anonymous_args = 0
	.loc 1 1913 1
	.syntax unified
@ 1913 "../../../../../../components/softdevice/s132/headers/ble_gap.h" 1
	svc #118
bx r14
@ 0 "" 2
	.thumb
	.syntax unified
	nop
	mov	r0, r3
.LFE163:
	.size	sd_ble_gap_disconnect, .-sd_ble_gap_disconnect
	.section	.text.sd_ble_gap_tx_power_set,"ax",%progbits
	.align	1
	.syntax unified
	.thumb
	.thumb_func
	.type	sd_ble_gap_tx_power_set, %function
sd_ble_gap_tx_power_set:
.LFB164:
	.loc 1 1938 1
	@ Naked Function: prologue and epilogue provided by programmer.
	@ args = 0, pretend = 0, frame = 0
	@ frame_needed = 0, uses_anonymous_args = 0
	.loc 1 1938 1
	.syntax unified
@ 1938 "../../../../../../components/softdevice/s132/headers/ble_gap.h" 1
	svc #119
bx r14
@ 0 "" 2
	.thumb
	.syntax unified
	nop
	mov	r0, r3
.LFE164:
	.size	sd_ble_gap_tx_power_set, .-sd_ble_gap_tx_power_set
	.section	.text.sd_ble_gap_appearance_set,"ax",%progbits
	.align	1
	.syntax unified
	.thumb
	.thumb_func
	.type	sd_ble_gap_appearance_set, %function
sd_ble_gap_appearance_set:
.LFB165:
	.loc 1 1948 1
	@ Naked Function: prologue and epilogue provided by programmer.
	@ args = 0, pretend = 0, frame = 0
	@ frame_needed = 0, uses_anonymous_args = 0
	.loc 1 1948 1
	.syntax unified
@ 1948 "../../../../../../components/softdevice/s132/headers/ble_gap.h" 1
	svc #120
bx r14
@ 0 "" 2
	.thumb
	.syntax unified
	nop
	mov	r0, r3
.LFE165:
	.size	sd_ble_gap_appearance_set, .-sd_ble_gap_appearance_set
	.section	.text.sd_ble_gap_appearance_get,"ax",%progbits
	.align	1
	.syntax unified
	.thumb
	.thumb_func
	.type	sd_ble_gap_appearance_get, %function
sd_ble_gap_appearance_get:
.LFB166:
	.loc 1 1958 1
	@ Naked Function: prologue and epilogue provided by programmer.
	@ args = 0, pretend = 0, frame = 0
	@ frame_needed = 0, uses_anonymous_args = 0
	.loc 1 1958 1
	.syntax unified
@ 1958 "../../../../../../components/softdevice/s132/headers/ble_gap.h" 1
	svc #121
bx r14
@ 0 "" 2
	.thumb
	.syntax unified
	nop
	mov	r0, r3
.LFE166:
	.size	sd_ble_gap_appearance_get, .-sd_ble_gap_appearance_get
	.section	.text.sd_ble_gap_ppcp_set,"ax",%progbits
	.align	1
	.syntax unified
	.thumb
	.thumb_func
	.type	sd_ble_gap_ppcp_set, %function
sd_ble_gap_ppcp_set:
.LFB167:
	.loc 1 1969 1
	@ Naked Function: prologue and epilogue provided by programmer.
	@ args = 0, pretend = 0, frame = 0
	@ frame_needed = 0, uses_anonymous_args = 0
	.loc 1 1969 1
	.syntax unified
@ 1969 "../../../../../../components/softdevice/s132/headers/ble_gap.h" 1
	svc #122
bx r14
@ 0 "" 2
	.thumb
	.syntax unified
	nop
	mov	r0, r3
.LFE167:
	.size	sd_ble_gap_ppcp_set, .-sd_ble_gap_ppcp_set
	.section	.text.sd_ble_gap_ppcp_get,"ax",%progbits
	.align	1
	.syntax unified
	.thumb
	.thumb_func
	.type	sd_ble_gap_ppcp_get, %function
sd_ble_gap_ppcp_get:
.LFB168:
	.loc 1 1979 1
	@ Naked Function: prologue and epilogue provided by programmer.
	@ args = 0, pretend = 0, frame = 0
	@ frame_needed = 0, uses_anonymous_args = 0
	.loc 1 1979 1
	.syntax unified
@ 1979 "../../../../../../components/softdevice/s132/headers/ble_gap.h" 1
	svc #123
bx r14
@ 0 "" 2
	.thumb
	.syntax unified
	nop
	mov	r0, r3
.LFE168:
	.size	sd_ble_gap_ppcp_get, .-sd_ble_gap_ppcp_get
	.section	.text.sd_ble_gap_device_name_set,"ax",%progbits
	.align	1
	.syntax unified
	.thumb
	.thumb_func
	.type	sd_ble_gap_device_name_set, %function
sd_ble_gap_device_name_set:
.LFB169:
	.loc 1 1997 1
	@ Naked Function: prologue and epilogue provided by programmer.
	@ args = 0, pretend = 0, frame = 0
	@ frame_needed = 0, uses_anonymous_args = 0
	.loc 1 1997 1
	.syntax unified
@ 1997 "../../../../../../components/softdevice/s132/headers/ble_gap.h" 1
	svc #124
bx r14
@ 0 "" 2
	.thumb
	.syntax unified
	nop
	mov	r0, r3
.LFE169:
	.size	sd_ble_gap_device_name_set, .-sd_ble_gap_device_name_set
	.section	.text.sd_ble_gap_device_name_get,"ax",%progbits
	.align	1
	.syntax unified
	.thumb
	.thumb_func
	.type	sd_ble_gap_device_name_get, %function
sd_ble_gap_device_name_get:
.LFB170:
	.loc 1 2014 1
	@ Naked Function: prologue and epilogue provided by programmer.
	@ args = 0, pretend = 0, frame = 0
	@ frame_needed = 0, uses_anonymous_args = 0
	.loc 1 2014 1
	.syntax unified
@ 2014 "../../../../../../components/softdevice/s132/headers/ble_gap.h" 1
	svc #125
bx r14
@ 0 "" 2
	.thumb
	.syntax unified
	nop
	mov	r0, r3
.LFE170:
	.size	sd_ble_gap_device_name_get, .-sd_ble_gap_device_name_get
	.section	.text.sd_ble_gap_authenticate,"ax",%progbits
	.align	1
	.syntax unified
	.thumb
	.thumb_func
	.type	sd_ble_gap_authenticate, %function
sd_ble_gap_authenticate:
.LFB171:
	.loc 1 2064 1
	@ Naked Function: prologue and epilogue provided by programmer.
	@ args = 0, pretend = 0, frame = 0
	@ frame_needed = 0, uses_anonymous_args = 0
	.loc 1 2064 1
	.syntax unified
@ 2064 "../../../../../../components/softdevice/s132/headers/ble_gap.h" 1
	svc #126
bx r14
@ 0 "" 2
	.thumb
	.syntax unified
	nop
	mov	r0, r3
.LFE171:
	.size	sd_ble_gap_authenticate, .-sd_ble_gap_authenticate
	.section	.text.sd_ble_gap_sec_params_reply,"ax",%progbits
	.align	1
	.syntax unified
	.thumb
	.thumb_func
	.type	sd_ble_gap_sec_params_reply, %function
sd_ble_gap_sec_params_reply:
.LFB172:
	.loc 1 2123 1
	@ Naked Function: prologue and epilogue provided by programmer.
	@ args = 0, pretend = 0, frame = 0
	@ frame_needed = 0, uses_anonymous_args = 0
	.loc 1 2123 1
	.syntax unified
@ 2123 "../../../../../../components/softdevice/s132/headers/ble_gap.h" 1
	svc #127
bx r14
@ 0 "" 2
	.thumb
	.syntax unified
	nop
	mov	r0, r3
.LFE172:
	.size	sd_ble_gap_sec_params_reply, .-sd_ble_gap_sec_params_reply
	.section	.text.sd_ble_gap_auth_key_reply,"ax",%progbits
	.align	1
	.syntax unified
	.thumb
	.thumb_func
	.type	sd_ble_gap_auth_key_reply, %function
sd_ble_gap_auth_key_reply:
.LFB173:
	.loc 1 2157 1
	@ Naked Function: prologue and epilogue provided by programmer.
	@ args = 0, pretend = 0, frame = 0
	@ frame_needed = 0, uses_anonymous_args = 0
	.loc 1 2157 1
	.syntax unified
@ 2157 "../../../../../../components/softdevice/s132/headers/ble_gap.h" 1
	svc #128
bx r14
@ 0 "" 2
	.thumb
	.syntax unified
	nop
	mov	r0, r3
.LFE173:
	.size	sd_ble_gap_auth_key_reply, .-sd_ble_gap_auth_key_reply
	.section	.text.sd_ble_gap_lesc_dhkey_reply,"ax",%progbits
	.align	1
	.syntax unified
	.thumb
	.thumb_func
	.type	sd_ble_gap_lesc_dhkey_reply, %function
sd_ble_gap_lesc_dhkey_reply:
.LFB174:
	.loc 1 2191 1
	@ Naked Function: prologue and epilogue provided by programmer.
	@ args = 0, pretend = 0, frame = 0
	@ frame_needed = 0, uses_anonymous_args = 0
	.loc 1 2191 1
	.syntax unified
@ 2191 "../../../../../../components/softdevice/s132/headers/ble_gap.h" 1
	svc #129
bx r14
@ 0 "" 2
	.thumb
	.syntax unified
	nop
	mov	r0, r3
.LFE174:
	.size	sd_ble_gap_lesc_dhkey_reply, .-sd_ble_gap_lesc_dhkey_reply
	.section	.text.sd_ble_gap_keypress_notify,"ax",%progbits
	.align	1
	.syntax unified
	.thumb
	.thumb_func
	.type	sd_ble_gap_keypress_notify, %function
sd_ble_gap_keypress_notify:
.LFB175:
	.loc 1 2210 1
	@ Naked Function: prologue and epilogue provided by programmer.
	@ args = 0, pretend = 0, frame = 0
	@ frame_needed = 0, uses_anonymous_args = 0
	.loc 1 2210 1
	.syntax unified
@ 2210 "../../../../../../components/softdevice/s132/headers/ble_gap.h" 1
	svc #130
bx r14
@ 0 "" 2
	.thumb
	.syntax unified
	nop
	mov	r0, r3
.LFE175:
	.size	sd_ble_gap_keypress_notify, .-sd_ble_gap_keypress_notify
	.section	.text.sd_ble_gap_lesc_oob_data_get,"ax",%progbits
	.align	1
	.syntax unified
	.thumb
	.thumb_func
	.type	sd_ble_gap_lesc_oob_data_get, %function
sd_ble_gap_lesc_oob_data_get:
.LFB176:
	.loc 1 2231 1
	@ Naked Function: prologue and epilogue provided by programmer.
	@ args = 0, pretend = 0, frame = 0
	@ frame_needed = 0, uses_anonymous_args = 0
	.loc 1 2231 1
	.syntax unified
@ 2231 "../../../../../../components/softdevice/s132/headers/ble_gap.h" 1
	svc #131
bx r14
@ 0 "" 2
	.thumb
	.syntax unified
	nop
	mov	r0, r3
.LFE176:
	.size	sd_ble_gap_lesc_oob_data_get, .-sd_ble_gap_lesc_oob_data_get
	.section	.text.sd_ble_gap_lesc_oob_data_set,"ax",%progbits
	.align	1
	.syntax unified
	.thumb
	.thumb_func
	.type	sd_ble_gap_lesc_oob_data_set, %function
sd_ble_gap_lesc_oob_data_set:
.LFB177:
	.loc 1 2259 1
	@ Naked Function: prologue and epilogue provided by programmer.
	@ args = 0, pretend = 0, frame = 0
	@ frame_needed = 0, uses_anonymous_args = 0
	.loc 1 2259 1
	.syntax unified
@ 2259 "../../../../../../components/softdevice/s132/headers/ble_gap.h" 1
	svc #132
bx r14
@ 0 "" 2
	.thumb
	.syntax unified
	nop
	mov	r0, r3
.LFE177:
	.size	sd_ble_gap_lesc_oob_data_set, .-sd_ble_gap_lesc_oob_data_set
	.section	.text.sd_ble_gap_encrypt,"ax",%progbits
	.align	1
	.syntax unified
	.thumb
	.thumb_func
	.type	sd_ble_gap_encrypt, %function
sd_ble_gap_encrypt:
.LFB178:
	.loc 1 2288 1
	@ Naked Function: prologue and epilogue provided by programmer.
	@ args = 0, pretend = 0, frame = 0
	@ frame_needed = 0, uses_anonymous_args = 0
	.loc 1 2288 1
	.syntax unified
@ 2288 "../../../../../../components/softdevice/s132/headers/ble_gap.h" 1
	svc #133
bx r14
@ 0 "" 2
	.thumb
	.syntax unified
	nop
	mov	r0, r3
.LFE178:
	.size	sd_ble_gap_encrypt, .-sd_ble_gap_encrypt
	.section	.text.sd_ble_gap_sec_info_reply,"ax",%progbits
	.align	1
	.syntax unified
	.thumb
	.thumb_func
	.type	sd_ble_gap_sec_info_reply, %function
sd_ble_gap_sec_info_reply:
.LFB179:
	.loc 1 2311 1
	@ Naked Function: prologue and epilogue provided by programmer.
	@ args = 0, pretend = 0, frame = 0
	@ frame_needed = 0, uses_anonymous_args = 0
	.loc 1 2311 1
	.syntax unified
@ 2311 "../../../../../../components/softdevice/s132/headers/ble_gap.h" 1
	svc #134
bx r14
@ 0 "" 2
	.thumb
	.syntax unified
	nop
	mov	r0, r3
.LFE179:
	.size	sd_ble_gap_sec_info_reply, .-sd_ble_gap_sec_info_reply
	.section	.text.sd_ble_gap_conn_sec_get,"ax",%progbits
	.align	1
	.syntax unified
	.thumb
	.thumb_func
	.type	sd_ble_gap_conn_sec_get, %function
sd_ble_gap_conn_sec_get:
.LFB180:
	.loc 1 2323 1
	@ Naked Function: prologue and epilogue provided by programmer.
	@ args = 0, pretend = 0, frame = 0
	@ frame_needed = 0, uses_anonymous_args = 0
	.loc 1 2323 1
	.syntax unified
@ 2323 "../../../../../../components/softdevice/s132/headers/ble_gap.h" 1
	svc #135
bx r14
@ 0 "" 2
	.thumb
	.syntax unified
	nop
	mov	r0, r3
.LFE180:
	.size	sd_ble_gap_conn_sec_get, .-sd_ble_gap_conn_sec_get
	.section	.text.sd_ble_gap_rssi_start,"ax",%progbits
	.align	1
	.syntax unified
	.thumb
	.thumb_func
	.type	sd_ble_gap_rssi_start, %function
sd_ble_gap_rssi_start:
.LFB181:
	.loc 1 2349 1
	@ Naked Function: prologue and epilogue provided by programmer.
	@ args = 0, pretend = 0, frame = 0
	@ frame_needed = 0, uses_anonymous_args = 0
	.loc 1 2349 1
	.syntax unified
@ 2349 "../../../../../../components/softdevice/s132/headers/ble_gap.h" 1
	svc #136
bx r14
@ 0 "" 2
	.thumb
	.syntax unified
	nop
	mov	r0, r3
.LFE181:
	.size	sd_ble_gap_rssi_start, .-sd_ble_gap_rssi_start
	.section	.text.sd_ble_gap_rssi_stop,"ax",%progbits
	.align	1
	.syntax unified
	.thumb
	.thumb_func
	.type	sd_ble_gap_rssi_stop, %function
sd_ble_gap_rssi_stop:
.LFB182:
	.loc 1 2368 1
	@ Naked Function: prologue and epilogue provided by programmer.
	@ args = 0, pretend = 0, frame = 0
	@ frame_needed = 0, uses_anonymous_args = 0
	.loc 1 2368 1
	.syntax unified
@ 2368 "../../../../../../components/softdevice/s132/headers/ble_gap.h" 1
	svc #137
bx r14
@ 0 "" 2
	.thumb
	.syntax unified
	nop
	mov	r0, r3
.LFE182:
	.size	sd_ble_gap_rssi_stop, .-sd_ble_gap_rssi_stop
	.section	.text.sd_ble_gap_rssi_get,"ax",%progbits
	.align	1
	.syntax unified
	.thumb
	.thumb_func
	.type	sd_ble_gap_rssi_get, %function
sd_ble_gap_rssi_get:
.LFB183:
	.loc 1 2389 1
	@ Naked Function: prologue and epilogue provided by programmer.
	@ args = 0, pretend = 0, frame = 0
	@ frame_needed = 0, uses_anonymous_args = 0
	.loc 1 2389 1
	.syntax unified
@ 2389 "../../../../../../components/softdevice/s132/headers/ble_gap.h" 1
	svc #142
bx r14
@ 0 "" 2
	.thumb
	.syntax unified
	nop
	mov	r0, r3
.LFE183:
	.size	sd_ble_gap_rssi_get, .-sd_ble_gap_rssi_get
	.section	.text.sd_ble_gap_scan_start,"ax",%progbits
	.align	1
	.syntax unified
	.thumb
	.thumb_func
	.type	sd_ble_gap_scan_start, %function
sd_ble_gap_scan_start:
.LFB184:
	.loc 1 2446 1
	@ Naked Function: prologue and epilogue provided by programmer.
	@ args = 0, pretend = 0, frame = 0
	@ frame_needed = 0, uses_anonymous_args = 0
	.loc 1 2446 1
	.syntax unified
@ 2446 "../../../../../../components/softdevice/s132/headers/ble_gap.h" 1
	svc #138
bx r14
@ 0 "" 2
	.thumb
	.syntax unified
	nop
	mov	r0, r3
.LFE184:
	.size	sd_ble_gap_scan_start, .-sd_ble_gap_scan_start
	.section	.text.sd_ble_gap_scan_stop,"ax",%progbits
	.align	1
	.syntax unified
	.thumb
	.thumb_func
	.type	sd_ble_gap_scan_stop, %function
sd_ble_gap_scan_stop:
.LFB185:
	.loc 1 2461 1
	@ Naked Function: prologue and epilogue provided by programmer.
	@ args = 0, pretend = 0, frame = 0
	@ frame_needed = 0, uses_anonymous_args = 0
	.loc 1 2461 1
	.syntax unified
@ 2461 "../../../../../../components/softdevice/s132/headers/ble_gap.h" 1
	svc #139
bx r14
@ 0 "" 2
	.thumb
	.syntax unified
	nop
	mov	r0, r3
.LFE185:
	.size	sd_ble_gap_scan_stop, .-sd_ble_gap_scan_stop
	.section	.text.sd_ble_gap_connect,"ax",%progbits
	.align	1
	.syntax unified
	.thumb
	.thumb_func
	.type	sd_ble_gap_connect, %function
sd_ble_gap_connect:
.LFB186:
	.loc 1 2501 1
	@ Naked Function: prologue and epilogue provided by programmer.
	@ args = 0, pretend = 0, frame = 0
	@ frame_needed = 0, uses_anonymous_args = 0
	.loc 1 2501 1
	.syntax unified
@ 2501 "../../../../../../components/softdevice/s132/headers/ble_gap.h" 1
	svc #140
bx r14
@ 0 "" 2
	.thumb
	.syntax unified
	nop
	mov	r0, r3
.LFE186:
	.size	sd_ble_gap_connect, .-sd_ble_gap_connect
	.section	.text.sd_ble_gap_connect_cancel,"ax",%progbits
	.align	1
	.syntax unified
	.thumb
	.thumb_func
	.type	sd_ble_gap_connect_cancel, %function
sd_ble_gap_connect_cancel:
.LFB187:
	.loc 1 2513 1
	@ Naked Function: prologue and epilogue provided by programmer.
	@ args = 0, pretend = 0, frame = 0
	@ frame_needed = 0, uses_anonymous_args = 0
	.loc 1 2513 1
	.syntax unified
@ 2513 "../../../../../../components/softdevice/s132/headers/ble_gap.h" 1
	svc #141
bx r14
@ 0 "" 2
	.thumb
	.syntax unified
	nop
	mov	r0, r3
.LFE187:
	.size	sd_ble_gap_connect_cancel, .-sd_ble_gap_connect_cancel
	.section	.text.sd_ble_gap_phy_update,"ax",%progbits
	.align	1
	.syntax unified
	.thumb
	.thumb_func
	.type	sd_ble_gap_phy_update, %function
sd_ble_gap_phy_update:
.LFB188:
	.loc 1 2567 1
	@ Naked Function: prologue and epilogue provided by programmer.
	@ args = 0, pretend = 0, frame = 0
	@ frame_needed = 0, uses_anonymous_args = 0
	.loc 1 2567 1
	.syntax unified
@ 2567 "../../../../../../components/softdevice/s132/headers/ble_gap.h" 1
	svc #143
bx r14
@ 0 "" 2
	.thumb
	.syntax unified
	nop
	mov	r0, r3
.LFE188:
	.size	sd_ble_gap_phy_update, .-sd_ble_gap_phy_update
	.section	.text.sd_ble_gap_data_length_update,"ax",%progbits
	.align	1
	.syntax unified
	.thumb
	.thumb_func
	.type	sd_ble_gap_data_length_update, %function
sd_ble_gap_data_length_update:
.LFB189:
	.loc 1 2602 1
	@ Naked Function: prologue and epilogue provided by programmer.
	@ args = 0, pretend = 0, frame = 0
	@ frame_needed = 0, uses_anonymous_args = 0
	.loc 1 2602 1
	.syntax unified
@ 2602 "../../../../../../components/softdevice/s132/headers/ble_gap.h" 1
	svc #144
bx r14
@ 0 "" 2
	.thumb
	.syntax unified
	nop
	mov	r0, r3
.LFE189:
	.size	sd_ble_gap_data_length_update, .-sd_ble_gap_data_length_update
	.section	.text.sd_ble_gap_qos_channel_survey_start,"ax",%progbits
	.align	1
	.syntax unified
	.thumb
	.thumb_func
	.type	sd_ble_gap_qos_channel_survey_start, %function
sd_ble_gap_qos_channel_survey_start:
.LFB190:
	.loc 1 2634 1
	@ Naked Function: prologue and epilogue provided by programmer.
	@ args = 0, pretend = 0, frame = 0
	@ frame_needed = 0, uses_anonymous_args = 0
	.loc 1 2634 1
	.syntax unified
@ 2634 "../../../../../../components/softdevice/s132/headers/ble_gap.h" 1
	svc #145
bx r14
@ 0 "" 2
	.thumb
	.syntax unified
	nop
	mov	r0, r3
.LFE190:
	.size	sd_ble_gap_qos_channel_survey_start, .-sd_ble_gap_qos_channel_survey_start
	.section	.text.sd_ble_gap_qos_channel_survey_stop,"ax",%progbits
	.align	1
	.syntax unified
	.thumb
	.thumb_func
	.type	sd_ble_gap_qos_channel_survey_stop, %function
sd_ble_gap_qos_channel_survey_stop:
.LFB191:
	.loc 1 2641 1
	@ Naked Function: prologue and epilogue provided by programmer.
	@ args = 0, pretend = 0, frame = 0
	@ frame_needed = 0, uses_anonymous_args = 0
	.loc 1 2641 1
	.syntax unified
@ 2641 "../../../../../../components/softdevice/s132/headers/ble_gap.h" 1
	svc #146
bx r14
@ 0 "" 2
	.thumb
	.syntax unified
	nop
	mov	r0, r3
.LFE191:
	.size	sd_ble_gap_qos_channel_survey_stop, .-sd_ble_gap_qos_channel_survey_stop
	.section	.text.sd_ble_l2cap_ch_setup,"ax",%progbits
	.align	1
	.syntax unified
	.thumb
	.thumb_func
	.type	sd_ble_l2cap_ch_setup, %function
sd_ble_l2cap_ch_setup:
.LFB192:
	.file 2 "../../../../../../components/softdevice/s132/headers/ble_l2cap.h"
	.loc 2 349 1
	@ Naked Function: prologue and epilogue provided by programmer.
	@ args = 0, pretend = 0, frame = 0
	@ frame_needed = 0, uses_anonymous_args = 0
	.loc 2 349 1
	.syntax unified
@ 349 "../../../../../../components/softdevice/s132/headers/ble_l2cap.h" 1
	svc #184
bx r14
@ 0 "" 2
	.thumb
	.syntax unified
	nop
	mov	r0, r3
.LFE192:
	.size	sd_ble_l2cap_ch_setup, .-sd_ble_l2cap_ch_setup
	.section	.text.sd_ble_l2cap_ch_release,"ax",%progbits
	.align	1
	.syntax unified
	.thumb
	.thumb_func
	.type	sd_ble_l2cap_ch_release, %function
sd_ble_l2cap_ch_release:
.LFB193:
	.loc 2 372 1
	@ Naked Function: prologue and epilogue provided by programmer.
	@ args = 0, pretend = 0, frame = 0
	@ frame_needed = 0, uses_anonymous_args = 0
	.loc 2 372 1
	.syntax unified
@ 372 "../../../../../../components/softdevice/s132/headers/ble_l2cap.h" 1
	svc #185
bx r14
@ 0 "" 2
	.thumb
	.syntax unified
	nop
	mov	r0, r3
.LFE193:
	.size	sd_ble_l2cap_ch_release, .-sd_ble_l2cap_ch_release
	.section	.text.sd_ble_l2cap_ch_rx,"ax",%progbits
	.align	1
	.syntax unified
	.thumb
	.thumb_func
	.type	sd_ble_l2cap_ch_rx, %function
sd_ble_l2cap_ch_rx:
.LFB194:
	.loc 2 406 1
	@ Naked Function: prologue and epilogue provided by programmer.
	@ args = 0, pretend = 0, frame = 0
	@ frame_needed = 0, uses_anonymous_args = 0
	.loc 2 406 1
	.syntax unified
@ 406 "../../../../../../components/softdevice/s132/headers/ble_l2cap.h" 1
	svc #186
bx r14
@ 0 "" 2
	.thumb
	.syntax unified
	nop
	mov	r0, r3
.LFE194:
	.size	sd_ble_l2cap_ch_rx, .-sd_ble_l2cap_ch_rx
	.section	.text.sd_ble_l2cap_ch_tx,"ax",%progbits
	.align	1
	.syntax unified
	.thumb
	.thumb_func
	.type	sd_ble_l2cap_ch_tx, %function
sd_ble_l2cap_ch_tx:
.LFB195:
	.loc 2 451 1
	@ Naked Function: prologue and epilogue provided by programmer.
	@ args = 0, pretend = 0, frame = 0
	@ frame_needed = 0, uses_anonymous_args = 0
	.loc 2 451 1
	.syntax unified
@ 451 "../../../../../../components/softdevice/s132/headers/ble_l2cap.h" 1
	svc #187
bx r14
@ 0 "" 2
	.thumb
	.syntax unified
	nop
	mov	r0, r3
.LFE195:
	.size	sd_ble_l2cap_ch_tx, .-sd_ble_l2cap_ch_tx
	.section	.text.sd_ble_l2cap_ch_flow_control,"ax",%progbits
	.align	1
	.syntax unified
	.thumb
	.thumb_func
	.type	sd_ble_l2cap_ch_flow_control, %function
sd_ble_l2cap_ch_flow_control:
.LFB196:
	.loc 2 495 1
	@ Naked Function: prologue and epilogue provided by programmer.
	@ args = 0, pretend = 0, frame = 0
	@ frame_needed = 0, uses_anonymous_args = 0
	.loc 2 495 1
	.syntax unified
@ 495 "../../../../../../components/softdevice/s132/headers/ble_l2cap.h" 1
	svc #188
bx r14
@ 0 "" 2
	.thumb
	.syntax unified
	nop
	mov	r0, r3
.LFE196:
	.size	sd_ble_l2cap_ch_flow_control, .-sd_ble_l2cap_ch_flow_control
	.section	.text.sd_ble_gattc_primary_services_discover,"ax",%progbits
	.align	1
	.syntax unified
	.thumb
	.thumb_func
	.type	sd_ble_gattc_primary_services_discover, %function
sd_ble_gattc_primary_services_discover:
.LFB197:
	.file 3 "../../../../../../components/softdevice/s132/headers/ble_gattc.h"
	.loc 3 379 1
	@ Naked Function: prologue and epilogue provided by programmer.
	@ args = 0, pretend = 0, frame = 0
	@ frame_needed = 0, uses_anonymous_args = 0
	.loc 3 379 1
	.syntax unified
@ 379 "../../../../../../components/softdevice/s132/headers/ble_gattc.h" 1
	svc #155
bx r14
@ 0 "" 2
	.thumb
	.syntax unified
	nop
	mov	r0, r3
.LFE197:
	.size	sd_ble_gattc_primary_services_discover, .-sd_ble_gattc_primary_services_discover
	.section	.text.sd_ble_gattc_relationships_discover,"ax",%progbits
	.align	1
	.syntax unified
	.thumb
	.thumb_func
	.type	sd_ble_gattc_relationships_discover, %function
sd_ble_gattc_relationships_discover:
.LFB198:
	.loc 3 406 1
	@ Naked Function: prologue and epilogue provided by programmer.
	@ args = 0, pretend = 0, frame = 0
	@ frame_needed = 0, uses_anonymous_args = 0
	.loc 3 406 1
	.syntax unified
@ 406 "../../../../../../components/softdevice/s132/headers/ble_gattc.h" 1
	svc #156
bx r14
@ 0 "" 2
	.thumb
	.syntax unified
	nop
	mov	r0, r3
.LFE198:
	.size	sd_ble_gattc_relationships_discover, .-sd_ble_gattc_relationships_discover
	.section	.text.sd_ble_gattc_characteristics_discover,"ax",%progbits
	.align	1
	.syntax unified
	.thumb
	.thumb_func
	.type	sd_ble_gattc_characteristics_discover, %function
sd_ble_gattc_characteristics_discover:
.LFB199:
	.loc 3 435 1
	@ Naked Function: prologue and epilogue provided by programmer.
	@ args = 0, pretend = 0, frame = 0
	@ frame_needed = 0, uses_anonymous_args = 0
	.loc 3 435 1
	.syntax unified
@ 435 "../../../../../../components/softdevice/s132/headers/ble_gattc.h" 1
	svc #157
bx r14
@ 0 "" 2
	.thumb
	.syntax unified
	nop
	mov	r0, r3
.LFE199:
	.size	sd_ble_gattc_characteristics_discover, .-sd_ble_gattc_characteristics_discover
	.section	.text.sd_ble_gattc_descriptors_discover,"ax",%progbits
	.align	1
	.syntax unified
	.thumb
	.thumb_func
	.type	sd_ble_gattc_descriptors_discover, %function
sd_ble_gattc_descriptors_discover:
.LFB200:
	.loc 3 461 1
	@ Naked Function: prologue and epilogue provided by programmer.
	@ args = 0, pretend = 0, frame = 0
	@ frame_needed = 0, uses_anonymous_args = 0
	.loc 3 461 1
	.syntax unified
@ 461 "../../../../../../components/softdevice/s132/headers/ble_gattc.h" 1
	svc #158
bx r14
@ 0 "" 2
	.thumb
	.syntax unified
	nop
	mov	r0, r3
.LFE200:
	.size	sd_ble_gattc_descriptors_discover, .-sd_ble_gattc_descriptors_discover
	.section	.text.sd_ble_gattc_char_value_by_uuid_read,"ax",%progbits
	.align	1
	.syntax unified
	.thumb
	.thumb_func
	.type	sd_ble_gattc_char_value_by_uuid_read, %function
sd_ble_gattc_char_value_by_uuid_read:
.LFB201:
	.loc 3 488 1
	@ Naked Function: prologue and epilogue provided by programmer.
	@ args = 0, pretend = 0, frame = 0
	@ frame_needed = 0, uses_anonymous_args = 0
	.loc 3 488 1
	.syntax unified
@ 488 "../../../../../../components/softdevice/s132/headers/ble_gattc.h" 1
	svc #160
bx r14
@ 0 "" 2
	.thumb
	.syntax unified
	nop
	mov	r0, r3
.LFE201:
	.size	sd_ble_gattc_char_value_by_uuid_read, .-sd_ble_gattc_char_value_by_uuid_read
	.section	.text.sd_ble_gattc_read,"ax",%progbits
	.align	1
	.syntax unified
	.thumb
	.thumb_func
	.type	sd_ble_gattc_read, %function
sd_ble_gattc_read:
.LFB202:
	.loc 3 515 1
	@ Naked Function: prologue and epilogue provided by programmer.
	@ args = 0, pretend = 0, frame = 0
	@ frame_needed = 0, uses_anonymous_args = 0
	.loc 3 515 1
	.syntax unified
@ 515 "../../../../../../components/softdevice/s132/headers/ble_gattc.h" 1
	svc #161
bx r14
@ 0 "" 2
	.thumb
	.syntax unified
	nop
	mov	r0, r3
.LFE202:
	.size	sd_ble_gattc_read, .-sd_ble_gattc_read
	.section	.text.sd_ble_gattc_char_values_read,"ax",%progbits
	.align	1
	.syntax unified
	.thumb
	.thumb_func
	.type	sd_ble_gattc_char_values_read, %function
sd_ble_gattc_char_values_read:
.LFB203:
	.loc 3 541 1
	@ Naked Function: prologue and epilogue provided by programmer.
	@ args = 0, pretend = 0, frame = 0
	@ frame_needed = 0, uses_anonymous_args = 0
	.loc 3 541 1
	.syntax unified
@ 541 "../../../../../../components/softdevice/s132/headers/ble_gattc.h" 1
	svc #162
bx r14
@ 0 "" 2
	.thumb
	.syntax unified
	nop
	mov	r0, r3
.LFE203:
	.size	sd_ble_gattc_char_values_read, .-sd_ble_gattc_char_values_read
	.section	.text.sd_ble_gattc_write,"ax",%progbits
	.align	1
	.syntax unified
	.thumb
	.thumb_func
	.type	sd_ble_gattc_write, %function
sd_ble_gattc_write:
.LFB204:
	.loc 3 588 1
	@ Naked Function: prologue and epilogue provided by programmer.
	@ args = 0, pretend = 0, frame = 0
	@ frame_needed = 0, uses_anonymous_args = 0
	.loc 3 588 1
	.syntax unified
@ 588 "../../../../../../components/softdevice/s132/headers/ble_gattc.h" 1
	svc #163
bx r14
@ 0 "" 2
	.thumb
	.syntax unified
	nop
	mov	r0, r3
.LFE204:
	.size	sd_ble_gattc_write, .-sd_ble_gattc_write
	.section	.text.sd_ble_gattc_hv_confirm,"ax",%progbits
	.align	1
	.syntax unified
	.thumb
	.thumb_func
	.type	sd_ble_gattc_hv_confirm, %function
sd_ble_gattc_hv_confirm:
.LFB205:
	.loc 3 606 1
	@ Naked Function: prologue and epilogue provided by programmer.
	@ args = 0, pretend = 0, frame = 0
	@ frame_needed = 0, uses_anonymous_args = 0
	.loc 3 606 1
	.syntax unified
@ 606 "../../../../../../components/softdevice/s132/headers/ble_gattc.h" 1
	svc #164
bx r14
@ 0 "" 2
	.thumb
	.syntax unified
	nop
	mov	r0, r3
.LFE205:
	.size	sd_ble_gattc_hv_confirm, .-sd_ble_gattc_hv_confirm
	.section	.text.sd_ble_gattc_attr_info_discover,"ax",%progbits
	.align	1
	.syntax unified
	.thumb
	.thumb_func
	.type	sd_ble_gattc_attr_info_discover, %function
sd_ble_gattc_attr_info_discover:
.LFB206:
	.loc 3 624 1
	@ Naked Function: prologue and epilogue provided by programmer.
	@ args = 0, pretend = 0, frame = 0
	@ frame_needed = 0, uses_anonymous_args = 0
	.loc 3 624 1
	.syntax unified
@ 624 "../../../../../../components/softdevice/s132/headers/ble_gattc.h" 1
	svc #159
bx r14
@ 0 "" 2
	.thumb
	.syntax unified
	nop
	mov	r0, r3
.LFE206:
	.size	sd_ble_gattc_attr_info_discover, .-sd_ble_gattc_attr_info_discover
	.section	.text.sd_ble_gattc_exchange_mtu_request,"ax",%progbits
	.align	1
	.syntax unified
	.thumb
	.thumb_func
	.type	sd_ble_gattc_exchange_mtu_request, %function
sd_ble_gattc_exchange_mtu_request:
.LFB207:
	.loc 3 657 1
	@ Naked Function: prologue and epilogue provided by programmer.
	@ args = 0, pretend = 0, frame = 0
	@ frame_needed = 0, uses_anonymous_args = 0
	.loc 3 657 1
	.syntax unified
@ 657 "../../../../../../components/softdevice/s132/headers/ble_gattc.h" 1
	svc #165
bx r14
@ 0 "" 2
	.thumb
	.syntax unified
	nop
	mov	r0, r3
.LFE207:
	.size	sd_ble_gattc_exchange_mtu_request, .-sd_ble_gattc_exchange_mtu_request
	.section	.text.sd_ble_gatts_service_add,"ax",%progbits
	.align	1
	.syntax unified
	.thumb
	.thumb_func
	.type	sd_ble_gatts_service_add, %function
sd_ble_gatts_service_add:
.LFB209:
	.file 4 "../../../../../../components/softdevice/s132/headers/ble_gatts.h"
	.loc 4 448 1
	@ Naked Function: prologue and epilogue provided by programmer.
	@ args = 0, pretend = 0, frame = 0
	@ frame_needed = 0, uses_anonymous_args = 0
	.loc 4 448 1
	.syntax unified
@ 448 "../../../../../../components/softdevice/s132/headers/ble_gatts.h" 1
	svc #168
bx r14
@ 0 "" 2
	.thumb
	.syntax unified
	nop
	mov	r0, r3
.LFE209:
	.size	sd_ble_gatts_service_add, .-sd_ble_gatts_service_add
	.section	.text.sd_ble_gatts_include_add,"ax",%progbits
	.align	1
	.syntax unified
	.thumb
	.thumb_func
	.type	sd_ble_gatts_include_add, %function
sd_ble_gatts_include_add:
.LFB210:
	.loc 4 474 1
	@ Naked Function: prologue and epilogue provided by programmer.
	@ args = 0, pretend = 0, frame = 0
	@ frame_needed = 0, uses_anonymous_args = 0
	.loc 4 474 1
	.syntax unified
@ 474 "../../../../../../components/softdevice/s132/headers/ble_gatts.h" 1
	svc #169
bx r14
@ 0 "" 2
	.thumb
	.syntax unified
	nop
	mov	r0, r3
.LFE210:
	.size	sd_ble_gatts_include_add, .-sd_ble_gatts_include_add
	.section	.text.sd_ble_gatts_characteristic_add,"ax",%progbits
	.align	1
	.syntax unified
	.thumb
	.thumb_func
	.type	sd_ble_gatts_characteristic_add, %function
sd_ble_gatts_characteristic_add:
.LFB211:
	.loc 4 503 1
	@ Naked Function: prologue and epilogue provided by programmer.
	@ args = 0, pretend = 0, frame = 0
	@ frame_needed = 0, uses_anonymous_args = 0
	.loc 4 503 1
	.syntax unified
@ 503 "../../../../../../components/softdevice/s132/headers/ble_gatts.h" 1
	svc #170
bx r14
@ 0 "" 2
	.thumb
	.syntax unified
	nop
	mov	r0, r3
.LFE211:
	.size	sd_ble_gatts_characteristic_add, .-sd_ble_gatts_characteristic_add
	.section	.text.sd_ble_gatts_descriptor_add,"ax",%progbits
	.align	1
	.syntax unified
	.thumb
	.thumb_func
	.type	sd_ble_gatts_descriptor_add, %function
sd_ble_gatts_descriptor_add:
.LFB212:
	.loc 4 526 1
	@ Naked Function: prologue and epilogue provided by programmer.
	@ args = 0, pretend = 0, frame = 0
	@ frame_needed = 0, uses_anonymous_args = 0
	.loc 4 526 1
	.syntax unified
@ 526 "../../../../../../components/softdevice/s132/headers/ble_gatts.h" 1
	svc #171
bx r14
@ 0 "" 2
	.thumb
	.syntax unified
	nop
	mov	r0, r3
.LFE212:
	.size	sd_ble_gatts_descriptor_add, .-sd_ble_gatts_descriptor_add
	.section	.text.sd_ble_gatts_value_set,"ax",%progbits
	.align	1
	.syntax unified
	.thumb
	.thumb_func
	.type	sd_ble_gatts_value_set, %function
sd_ble_gatts_value_set:
.LFB213:
	.loc 4 549 1
	@ Naked Function: prologue and epilogue provided by programmer.
	@ args = 0, pretend = 0, frame = 0
	@ frame_needed = 0, uses_anonymous_args = 0
	.loc 4 549 1
	.syntax unified
@ 549 "../../../../../../components/softdevice/s132/headers/ble_gatts.h" 1
	svc #172
bx r14
@ 0 "" 2
	.thumb
	.syntax unified
	nop
	mov	r0, r3
.LFE213:
	.size	sd_ble_gatts_value_set, .-sd_ble_gatts_value_set
	.section	.text.sd_ble_gatts_value_get,"ax",%progbits
	.align	1
	.syntax unified
	.thumb
	.thumb_func
	.type	sd_ble_gatts_value_get, %function
sd_ble_gatts_value_get:
.LFB214:
	.loc 4 573 1
	@ Naked Function: prologue and epilogue provided by programmer.
	@ args = 0, pretend = 0, frame = 0
	@ frame_needed = 0, uses_anonymous_args = 0
	.loc 4 573 1
	.syntax unified
@ 573 "../../../../../../components/softdevice/s132/headers/ble_gatts.h" 1
	svc #173
bx r14
@ 0 "" 2
	.thumb
	.syntax unified
	nop
	mov	r0, r3
.LFE214:
	.size	sd_ble_gatts_value_get, .-sd_ble_gatts_value_get
	.section	.text.sd_ble_gatts_hvx,"ax",%progbits
	.align	1
	.syntax unified
	.thumb
	.thumb_func
	.type	sd_ble_gatts_hvx, %function
sd_ble_gatts_hvx:
.LFB215:
	.loc 4 638 1
	@ Naked Function: prologue and epilogue provided by programmer.
	@ args = 0, pretend = 0, frame = 0
	@ frame_needed = 0, uses_anonymous_args = 0
	.loc 4 638 1
	.syntax unified
@ 638 "../../../../../../components/softdevice/s132/headers/ble_gatts.h" 1
	svc #174
bx r14
@ 0 "" 2
	.thumb
	.syntax unified
	nop
	mov	r0, r3
.LFE215:
	.size	sd_ble_gatts_hvx, .-sd_ble_gatts_hvx
	.section	.text.sd_ble_gatts_service_changed,"ax",%progbits
	.align	1
	.syntax unified
	.thumb
	.thumb_func
	.type	sd_ble_gatts_service_changed, %function
sd_ble_gatts_service_changed:
.LFB216:
	.loc 4 674 1
	@ Naked Function: prologue and epilogue provided by programmer.
	@ args = 0, pretend = 0, frame = 0
	@ frame_needed = 0, uses_anonymous_args = 0
	.loc 4 674 1
	.syntax unified
@ 674 "../../../../../../components/softdevice/s132/headers/ble_gatts.h" 1
	svc #175
bx r14
@ 0 "" 2
	.thumb
	.syntax unified
	nop
	mov	r0, r3
.LFE216:
	.size	sd_ble_gatts_service_changed, .-sd_ble_gatts_service_changed
	.section	.text.sd_ble_gatts_rw_authorize_reply,"ax",%progbits
	.align	1
	.syntax unified
	.thumb
	.thumb_func
	.type	sd_ble_gatts_rw_authorize_reply, %function
sd_ble_gatts_rw_authorize_reply:
.LFB217:
	.loc 4 707 1
	@ Naked Function: prologue and epilogue provided by programmer.
	@ args = 0, pretend = 0, frame = 0
	@ frame_needed = 0, uses_anonymous_args = 0
	.loc 4 707 1
	.syntax unified
@ 707 "../../../../../../components/softdevice/s132/headers/ble_gatts.h" 1
	svc #176
bx r14
@ 0 "" 2
	.thumb
	.syntax unified
	nop
	mov	r0, r3
.LFE217:
	.size	sd_ble_gatts_rw_authorize_reply, .-sd_ble_gatts_rw_authorize_reply
	.section	.text.sd_ble_gatts_sys_attr_set,"ax",%progbits
	.align	1
	.syntax unified
	.thumb
	.thumb_func
	.type	sd_ble_gatts_sys_attr_set, %function
sd_ble_gatts_sys_attr_set:
.LFB218:
	.loc 4 751 1
	@ Naked Function: prologue and epilogue provided by programmer.
	@ args = 0, pretend = 0, frame = 0
	@ frame_needed = 0, uses_anonymous_args = 0
	.loc 4 751 1
	.syntax unified
@ 751 "../../../../../../components/softdevice/s132/headers/ble_gatts.h" 1
	svc #177
bx r14
@ 0 "" 2
	.thumb
	.syntax unified
	nop
	mov	r0, r3
.LFE218:
	.size	sd_ble_gatts_sys_attr_set, .-sd_ble_gatts_sys_attr_set
	.section	.text.sd_ble_gatts_sys_attr_get,"ax",%progbits
	.align	1
	.syntax unified
	.thumb
	.thumb_func
	.type	sd_ble_gatts_sys_attr_get, %function
sd_ble_gatts_sys_attr_get:
.LFB219:
	.loc 4 784 1
	@ Naked Function: prologue and epilogue provided by programmer.
	@ args = 0, pretend = 0, frame = 0
	@ frame_needed = 0, uses_anonymous_args = 0
	.loc 4 784 1
	.syntax unified
@ 784 "../../../../../../components/softdevice/s132/headers/ble_gatts.h" 1
	svc #178
bx r14
@ 0 "" 2
	.thumb
	.syntax unified
	nop
	mov	r0, r3
.LFE219:
	.size	sd_ble_gatts_sys_attr_get, .-sd_ble_gatts_sys_attr_get
	.section	.text.sd_ble_gatts_initial_user_handle_get,"ax",%progbits
	.align	1
	.syntax unified
	.thumb
	.thumb_func
	.type	sd_ble_gatts_initial_user_handle_get, %function
sd_ble_gatts_initial_user_handle_get:
.LFB220:
	.loc 4 794 1
	@ Naked Function: prologue and epilogue provided by programmer.
	@ args = 0, pretend = 0, frame = 0
	@ frame_needed = 0, uses_anonymous_args = 0
	.loc 4 794 1
	.syntax unified
@ 794 "../../../../../../components/softdevice/s132/headers/ble_gatts.h" 1
	svc #179
bx r14
@ 0 "" 2
	.thumb
	.syntax unified
	nop
	mov	r0, r3
.LFE220:
	.size	sd_ble_gatts_initial_user_handle_get, .-sd_ble_gatts_initial_user_handle_get
	.section	.text.sd_ble_gatts_attr_get,"ax",%progbits
	.align	1
	.syntax unified
	.thumb
	.thumb_func
	.type	sd_ble_gatts_attr_get, %function
sd_ble_gatts_attr_get:
.LFB221:
	.loc 4 807 1
	@ Naked Function: prologue and epilogue provided by programmer.
	@ args = 0, pretend = 0, frame = 0
	@ frame_needed = 0, uses_anonymous_args = 0
	.loc 4 807 1
	.syntax unified
@ 807 "../../../../../../components/softdevice/s132/headers/ble_gatts.h" 1
	svc #180
bx r14
@ 0 "" 2
	.thumb
	.syntax unified
	nop
	mov	r0, r3
.LFE221:
	.size	sd_ble_gatts_attr_get, .-sd_ble_gatts_attr_get
	.section	.text.sd_ble_gatts_exchange_mtu_reply,"ax",%progbits
	.align	1
	.syntax unified
	.thumb
	.thumb_func
	.type	sd_ble_gatts_exchange_mtu_reply, %function
sd_ble_gatts_exchange_mtu_reply:
.LFB222:
	.loc 4 837 1
	@ Naked Function: prologue and epilogue provided by programmer.
	@ args = 0, pretend = 0, frame = 0
	@ frame_needed = 0, uses_anonymous_args = 0
	.loc 4 837 1
	.syntax unified
@ 837 "../../../../../../components/softdevice/s132/headers/ble_gatts.h" 1
	svc #181
bx r14
@ 0 "" 2
	.thumb
	.syntax unified
	nop
	mov	r0, r3
.LFE222:
	.size	sd_ble_gatts_exchange_mtu_reply, .-sd_ble_gatts_exchange_mtu_reply
	.section	.text.sd_ble_enable,"ax",%progbits
	.align	1
	.syntax unified
	.thumb
	.thumb_func
	.type	sd_ble_enable, %function
sd_ble_enable:
.LFB223:
	.file 5 "../../../../../../components/softdevice/s132/headers/ble.h"
	.loc 5 394 1
	@ Naked Function: prologue and epilogue provided by programmer.
	@ args = 0, pretend = 0, frame = 0
	@ frame_needed = 0, uses_anonymous_args = 0
	.loc 5 394 1
	.syntax unified
@ 394 "../../../../../../components/softdevice/s132/headers/ble.h" 1
	svc #96
bx r14
@ 0 "" 2
	.thumb
	.syntax unified
	nop
	mov	r0, r3
.LFE223:
	.size	sd_ble_enable, .-sd_ble_enable
	.section	.text.sd_ble_cfg_set,"ax",%progbits
	.align	1
	.syntax unified
	.thumb
	.thumb_func
	.type	sd_ble_cfg_set, %function
sd_ble_cfg_set:
.LFB224:
	.loc 5 430 1
	@ Naked Function: prologue and epilogue provided by programmer.
	@ args = 0, pretend = 0, frame = 0
	@ frame_needed = 0, uses_anonymous_args = 0
	.loc 5 430 1
	.syntax unified
@ 430 "../../../../../../components/softdevice/s132/headers/ble.h" 1
	svc #105
bx r14
@ 0 "" 2
	.thumb
	.syntax unified
	nop
	mov	r0, r3
.LFE224:
	.size	sd_ble_cfg_set, .-sd_ble_cfg_set
	.section	.text.sd_ble_evt_get,"ax",%progbits
	.align	1
	.syntax unified
	.thumb
	.thumb_func
	.type	sd_ble_evt_get, %function
sd_ble_evt_get:
.LFB225:
	.loc 5 468 1
	@ Naked Function: prologue and epilogue provided by programmer.
	@ args = 0, pretend = 0, frame = 0
	@ frame_needed = 0, uses_anonymous_args = 0
	.loc 5 468 1
	.syntax unified
@ 468 "../../../../../../components/softdevice/s132/headers/ble.h" 1
	svc #97
bx r14
@ 0 "" 2
	.thumb
	.syntax unified
	nop
	mov	r0, r3
.LFE225:
	.size	sd_ble_evt_get, .-sd_ble_evt_get
	.section	.text.sd_ble_uuid_vs_add,"ax",%progbits
	.align	1
	.syntax unified
	.thumb
	.thumb_func
	.type	sd_ble_uuid_vs_add, %function
sd_ble_uuid_vs_add:
.LFB226:
	.loc 5 497 1
	@ Naked Function: prologue and epilogue provided by programmer.
	@ args = 0, pretend = 0, frame = 0
	@ frame_needed = 0, uses_anonymous_args = 0
	.loc 5 497 1
	.syntax unified
@ 497 "../../../../../../components/softdevice/s132/headers/ble.h" 1
	svc #98
bx r14
@ 0 "" 2
	.thumb
	.syntax unified
	nop
	mov	r0, r3
.LFE226:
	.size	sd_ble_uuid_vs_add, .-sd_ble_uuid_vs_add
	.section	.text.sd_ble_uuid_decode,"ax",%progbits
	.align	1
	.syntax unified
	.thumb
	.thumb_func
	.type	sd_ble_uuid_decode, %function
sd_ble_uuid_decode:
.LFB227:
	.loc 5 518 1
	@ Naked Function: prologue and epilogue provided by programmer.
	@ args = 0, pretend = 0, frame = 0
	@ frame_needed = 0, uses_anonymous_args = 0
	.loc 5 518 1
	.syntax unified
@ 518 "../../../../../../components/softdevice/s132/headers/ble.h" 1
	svc #99
bx r14
@ 0 "" 2
	.thumb
	.syntax unified
	nop
	mov	r0, r3
.LFE227:
	.size	sd_ble_uuid_decode, .-sd_ble_uuid_decode
	.section	.text.sd_ble_uuid_encode,"ax",%progbits
	.align	1
	.syntax unified
	.thumb
	.thumb_func
	.type	sd_ble_uuid_encode, %function
sd_ble_uuid_encode:
.LFB228:
	.loc 5 533 1
	@ Naked Function: prologue and epilogue provided by programmer.
	@ args = 0, pretend = 0, frame = 0
	@ frame_needed = 0, uses_anonymous_args = 0
	.loc 5 533 1
	.syntax unified
@ 533 "../../../../../../components/softdevice/s132/headers/ble.h" 1
	svc #100
bx r14
@ 0 "" 2
	.thumb
	.syntax unified
	nop
	mov	r0, r3
.LFE228:
	.size	sd_ble_uuid_encode, .-sd_ble_uuid_encode
	.section	.text.sd_ble_version_get,"ax",%progbits
	.align	1
	.syntax unified
	.thumb
	.thumb_func
	.type	sd_ble_version_get, %function
sd_ble_version_get:
.LFB229:
	.loc 5 546 1
	@ Naked Function: prologue and epilogue provided by programmer.
	@ args = 0, pretend = 0, frame = 0
	@ frame_needed = 0, uses_anonymous_args = 0
	.loc 5 546 1
	.syntax unified
@ 546 "../../../../../../components/softdevice/s132/headers/ble.h" 1
	svc #101
bx r14
@ 0 "" 2
	.thumb
	.syntax unified
	nop
	mov	r0, r3
.LFE229:
	.size	sd_ble_version_get, .-sd_ble_version_get
	.section	.text.sd_ble_user_mem_reply,"ax",%progbits
	.align	1
	.syntax unified
	.thumb
	.thumb_func
	.type	sd_ble_user_mem_reply, %function
sd_ble_user_mem_reply:
.LFB230:
	.loc 5 572 1
	@ Naked Function: prologue and epilogue provided by programmer.
	@ args = 0, pretend = 0, frame = 0
	@ frame_needed = 0, uses_anonymous_args = 0
	.loc 5 572 1
	.syntax unified
@ 572 "../../../../../../components/softdevice/s132/headers/ble.h" 1
	svc #102
bx r14
@ 0 "" 2
	.thumb
	.syntax unified
	nop
	mov	r0, r3
.LFE230:
	.size	sd_ble_user_mem_reply, .-sd_ble_user_mem_reply
	.section	.text.sd_ble_opt_set,"ax",%progbits
	.align	1
	.syntax unified
	.thumb
	.thumb_func
	.type	sd_ble_opt_set, %function
sd_ble_opt_set:
.LFB231:
	.loc 5 592 1
	@ Naked Function: prologue and epilogue provided by programmer.
	@ args = 0, pretend = 0, frame = 0
	@ frame_needed = 0, uses_anonymous_args = 0
	.loc 5 592 1
	.syntax unified
@ 592 "../../../../../../components/softdevice/s132/headers/ble.h" 1
	svc #103
bx r14
@ 0 "" 2
	.thumb
	.syntax unified
	nop
	mov	r0, r3
.LFE231:
	.size	sd_ble_opt_set, .-sd_ble_opt_set
	.section	.text.sd_ble_opt_get,"ax",%progbits
	.align	1
	.syntax unified
	.thumb
	.thumb_func
	.type	sd_ble_opt_get, %function
sd_ble_opt_get:
.LFB232:
	.loc 5 611 1
	@ Naked Function: prologue and epilogue provided by programmer.
	@ args = 0, pretend = 0, frame = 0
	@ frame_needed = 0, uses_anonymous_args = 0
	.loc 5 611 1
	.syntax unified
@ 611 "../../../../../../components/softdevice/s132/headers/ble.h" 1
	svc #104
bx r14
@ 0 "" 2
	.thumb
	.syntax unified
	nop
	mov	r0, r3
.LFE232:
	.size	sd_ble_opt_get, .-sd_ble_opt_get
	.section	.text.sd_mutex_new,"ax",%progbits
	.align	1
	.syntax unified
	.thumb
	.thumb_func
	.type	sd_mutex_new, %function
sd_mutex_new:
.LFB233:
	.file 6 "../../../../../../components/softdevice/s132/headers/nrf_soc.h"
	.loc 6 393 1
	@ Naked Function: prologue and epilogue provided by programmer.
	@ args = 0, pretend = 0, frame = 0
	@ frame_needed = 0, uses_anonymous_args = 0
	.loc 6 393 1
	.syntax unified
@ 393 "../../../../../../components/softdevice/s132/headers/nrf_soc.h" 1
	svc #44
bx r14
@ 0 "" 2
	.thumb
	.syntax unified
	nop
	mov	r0, r3
.LFE233:
	.size	sd_mutex_new, .-sd_mutex_new
	.section	.text.sd_mutex_acquire,"ax",%progbits
	.align	1
	.syntax unified
	.thumb
	.thumb_func
	.type	sd_mutex_acquire, %function
sd_mutex_acquire:
.LFB234:
	.loc 6 402 1
	@ Naked Function: prologue and epilogue provided by programmer.
	@ args = 0, pretend = 0, frame = 0
	@ frame_needed = 0, uses_anonymous_args = 0
	.loc 6 402 1
	.syntax unified
@ 402 "../../../../../../components/softdevice/s132/headers/nrf_soc.h" 1
	svc #45
bx r14
@ 0 "" 2
	.thumb
	.syntax unified
	nop
	mov	r0, r3
.LFE234:
	.size	sd_mutex_acquire, .-sd_mutex_acquire
	.section	.text.sd_mutex_release,"ax",%progbits
	.align	1
	.syntax unified
	.thumb
	.thumb_func
	.type	sd_mutex_release, %function
sd_mutex_release:
.LFB235:
	.loc 6 410 1
	@ Naked Function: prologue and epilogue provided by programmer.
	@ args = 0, pretend = 0, frame = 0
	@ frame_needed = 0, uses_anonymous_args = 0
	.loc 6 410 1
	.syntax unified
@ 410 "../../../../../../components/softdevice/s132/headers/nrf_soc.h" 1
	svc #46
bx r14
@ 0 "" 2
	.thumb
	.syntax unified
	nop
	mov	r0, r3
.LFE235:
	.size	sd_mutex_release, .-sd_mutex_release
	.section	.text.sd_rand_application_pool_capacity_get,"ax",%progbits
	.align	1
	.syntax unified
	.thumb
	.thumb_func
	.type	sd_rand_application_pool_capacity_get, %function
sd_rand_application_pool_capacity_get:
.LFB236:
	.loc 6 418 1
	@ Naked Function: prologue and epilogue provided by programmer.
	@ args = 0, pretend = 0, frame = 0
	@ frame_needed = 0, uses_anonymous_args = 0
	.loc 6 418 1
	.syntax unified
@ 418 "../../../../../../components/softdevice/s132/headers/nrf_soc.h" 1
	svc #47
bx r14
@ 0 "" 2
	.thumb
	.syntax unified
	nop
	mov	r0, r3
.LFE236:
	.size	sd_rand_application_pool_capacity_get, .-sd_rand_application_pool_capacity_get
	.section	.text.sd_rand_application_bytes_available_get,"ax",%progbits
	.align	1
	.syntax unified
	.thumb
	.thumb_func
	.type	sd_rand_application_bytes_available_get, %function
sd_rand_application_bytes_available_get:
.LFB237:
	.loc 6 426 1
	@ Naked Function: prologue and epilogue provided by programmer.
	@ args = 0, pretend = 0, frame = 0
	@ frame_needed = 0, uses_anonymous_args = 0
	.loc 6 426 1
	.syntax unified
@ 426 "../../../../../../components/softdevice/s132/headers/nrf_soc.h" 1
	svc #48
bx r14
@ 0 "" 2
	.thumb
	.syntax unified
	nop
	mov	r0, r3
.LFE237:
	.size	sd_rand_application_bytes_available_get, .-sd_rand_application_bytes_available_get
	.section	.text.sd_rand_application_vector_get,"ax",%progbits
	.align	1
	.syntax unified
	.thumb
	.thumb_func
	.type	sd_rand_application_vector_get, %function
sd_rand_application_vector_get:
.LFB238:
	.loc 6 436 1
	@ Naked Function: prologue and epilogue provided by programmer.
	@ args = 0, pretend = 0, frame = 0
	@ frame_needed = 0, uses_anonymous_args = 0
	.loc 6 436 1
	.syntax unified
@ 436 "../../../../../../components/softdevice/s132/headers/nrf_soc.h" 1
	svc #49
bx r14
@ 0 "" 2
	.thumb
	.syntax unified
	nop
	mov	r0, r3
.LFE238:
	.size	sd_rand_application_vector_get, .-sd_rand_application_vector_get
	.section	.text.sd_power_reset_reason_get,"ax",%progbits
	.align	1
	.syntax unified
	.thumb
	.thumb_func
	.type	sd_power_reset_reason_get, %function
sd_power_reset_reason_get:
.LFB239:
	.loc 6 444 1
	@ Naked Function: prologue and epilogue provided by programmer.
	@ args = 0, pretend = 0, frame = 0
	@ frame_needed = 0, uses_anonymous_args = 0
	.loc 6 444 1
	.syntax unified
@ 444 "../../../../../../components/softdevice/s132/headers/nrf_soc.h" 1
	svc #52
bx r14
@ 0 "" 2
	.thumb
	.syntax unified
	nop
	mov	r0, r3
.LFE239:
	.size	sd_power_reset_reason_get, .-sd_power_reset_reason_get
	.section	.text.sd_power_reset_reason_clr,"ax",%progbits
	.align	1
	.syntax unified
	.thumb
	.thumb_func
	.type	sd_power_reset_reason_clr, %function
sd_power_reset_reason_clr:
.LFB240:
	.loc 6 452 1
	@ Naked Function: prologue and epilogue provided by programmer.
	@ args = 0, pretend = 0, frame = 0
	@ frame_needed = 0, uses_anonymous_args = 0
	.loc 6 452 1
	.syntax unified
@ 452 "../../../../../../components/softdevice/s132/headers/nrf_soc.h" 1
	svc #53
bx r14
@ 0 "" 2
	.thumb
	.syntax unified
	nop
	mov	r0, r3
.LFE240:
	.size	sd_power_reset_reason_clr, .-sd_power_reset_reason_clr
	.section	.text.sd_power_mode_set,"ax",%progbits
	.align	1
	.syntax unified
	.thumb
	.thumb_func
	.type	sd_power_mode_set, %function
sd_power_mode_set:
.LFB241:
	.loc 6 461 1
	@ Naked Function: prologue and epilogue provided by programmer.
	@ args = 0, pretend = 0, frame = 0
	@ frame_needed = 0, uses_anonymous_args = 0
	.loc 6 461 1
	.syntax unified
@ 461 "../../../../../../components/softdevice/s132/headers/nrf_soc.h" 1
	svc #50
bx r14
@ 0 "" 2
	.thumb
	.syntax unified
	nop
	mov	r0, r3
.LFE241:
	.size	sd_power_mode_set, .-sd_power_mode_set
	.section	.text.sd_power_system_off,"ax",%progbits
	.align	1
	.syntax unified
	.thumb
	.thumb_func
	.type	sd_power_system_off, %function
sd_power_system_off:
.LFB242:
	.loc 6 467 1
	@ Naked Function: prologue and epilogue provided by programmer.
	@ args = 0, pretend = 0, frame = 0
	@ frame_needed = 0, uses_anonymous_args = 0
	.loc 6 467 1
	.syntax unified
@ 467 "../../../../../../components/softdevice/s132/headers/nrf_soc.h" 1
	svc #51
bx r14
@ 0 "" 2
	.thumb
	.syntax unified
	nop
	mov	r0, r3
.LFE242:
	.size	sd_power_system_off, .-sd_power_system_off
	.section	.text.sd_power_pof_enable,"ax",%progbits
	.align	1
	.syntax unified
	.thumb
	.thumb_func
	.type	sd_power_pof_enable, %function
sd_power_pof_enable:
.LFB243:
	.loc 6 478 1
	@ Naked Function: prologue and epilogue provided by programmer.
	@ args = 0, pretend = 0, frame = 0
	@ frame_needed = 0, uses_anonymous_args = 0
	.loc 6 478 1
	.syntax unified
@ 478 "../../../../../../components/softdevice/s132/headers/nrf_soc.h" 1
	svc #54
bx r14
@ 0 "" 2
	.thumb
	.syntax unified
	nop
	mov	r0, r3
.LFE243:
	.size	sd_power_pof_enable, .-sd_power_pof_enable
	.section	.text.sd_power_pof_threshold_set,"ax",%progbits
	.align	1
	.syntax unified
	.thumb
	.thumb_func
	.type	sd_power_pof_threshold_set, %function
sd_power_pof_threshold_set:
.LFB244:
	.loc 6 489 1
	@ Naked Function: prologue and epilogue provided by programmer.
	@ args = 0, pretend = 0, frame = 0
	@ frame_needed = 0, uses_anonymous_args = 0
	.loc 6 489 1
	.syntax unified
@ 489 "../../../../../../components/softdevice/s132/headers/nrf_soc.h" 1
	svc #55
bx r14
@ 0 "" 2
	.thumb
	.syntax unified
	nop
	mov	r0, r3
.LFE244:
	.size	sd_power_pof_threshold_set, .-sd_power_pof_threshold_set
	.section	.text.sd_power_ram_power_set,"ax",%progbits
	.align	1
	.syntax unified
	.thumb
	.thumb_func
	.type	sd_power_ram_power_set, %function
sd_power_ram_power_set:
.LFB245:
	.loc 6 499 1
	@ Naked Function: prologue and epilogue provided by programmer.
	@ args = 0, pretend = 0, frame = 0
	@ frame_needed = 0, uses_anonymous_args = 0
	.loc 6 499 1
	.syntax unified
@ 499 "../../../../../../components/softdevice/s132/headers/nrf_soc.h" 1
	svc #57
bx r14
@ 0 "" 2
	.thumb
	.syntax unified
	nop
	mov	r0, r3
.LFE245:
	.size	sd_power_ram_power_set, .-sd_power_ram_power_set
	.section	.text.sd_power_ram_power_clr,"ax",%progbits
	.align	1
	.syntax unified
	.thumb
	.thumb_func
	.type	sd_power_ram_power_clr, %function
sd_power_ram_power_clr:
.LFB246:
	.loc 6 508 1
	@ Naked Function: prologue and epilogue provided by programmer.
	@ args = 0, pretend = 0, frame = 0
	@ frame_needed = 0, uses_anonymous_args = 0
	.loc 6 508 1
	.syntax unified
@ 508 "../../../../../../components/softdevice/s132/headers/nrf_soc.h" 1
	svc #58
bx r14
@ 0 "" 2
	.thumb
	.syntax unified
	nop
	mov	r0, r3
.LFE246:
	.size	sd_power_ram_power_clr, .-sd_power_ram_power_clr
	.section	.text.sd_power_ram_power_get,"ax",%progbits
	.align	1
	.syntax unified
	.thumb
	.thumb_func
	.type	sd_power_ram_power_get, %function
sd_power_ram_power_get:
.LFB247:
	.loc 6 517 1
	@ Naked Function: prologue and epilogue provided by programmer.
	@ args = 0, pretend = 0, frame = 0
	@ frame_needed = 0, uses_anonymous_args = 0
	.loc 6 517 1
	.syntax unified
@ 517 "../../../../../../components/softdevice/s132/headers/nrf_soc.h" 1
	svc #59
bx r14
@ 0 "" 2
	.thumb
	.syntax unified
	nop
	mov	r0, r3
.LFE247:
	.size	sd_power_ram_power_get, .-sd_power_ram_power_get
	.section	.text.sd_power_gpregret_set,"ax",%progbits
	.align	1
	.syntax unified
	.thumb
	.thumb_func
	.type	sd_power_gpregret_set, %function
sd_power_gpregret_set:
.LFB248:
	.loc 6 526 1
	@ Naked Function: prologue and epilogue provided by programmer.
	@ args = 0, pretend = 0, frame = 0
	@ frame_needed = 0, uses_anonymous_args = 0
	.loc 6 526 1
	.syntax unified
@ 526 "../../../../../../components/softdevice/s132/headers/nrf_soc.h" 1
	svc #60
bx r14
@ 0 "" 2
	.thumb
	.syntax unified
	nop
	mov	r0, r3
.LFE248:
	.size	sd_power_gpregret_set, .-sd_power_gpregret_set
	.section	.text.sd_power_gpregret_clr,"ax",%progbits
	.align	1
	.syntax unified
	.thumb
	.thumb_func
	.type	sd_power_gpregret_clr, %function
sd_power_gpregret_clr:
.LFB249:
	.loc 6 535 1
	@ Naked Function: prologue and epilogue provided by programmer.
	@ args = 0, pretend = 0, frame = 0
	@ frame_needed = 0, uses_anonymous_args = 0
	.loc 6 535 1
	.syntax unified
@ 535 "../../../../../../components/softdevice/s132/headers/nrf_soc.h" 1
	svc #61
bx r14
@ 0 "" 2
	.thumb
	.syntax unified
	nop
	mov	r0, r3
.LFE249:
	.size	sd_power_gpregret_clr, .-sd_power_gpregret_clr
	.section	.text.sd_power_gpregret_get,"ax",%progbits
	.align	1
	.syntax unified
	.thumb
	.thumb_func
	.type	sd_power_gpregret_get, %function
sd_power_gpregret_get:
.LFB250:
	.loc 6 544 1
	@ Naked Function: prologue and epilogue provided by programmer.
	@ args = 0, pretend = 0, frame = 0
	@ frame_needed = 0, uses_anonymous_args = 0
	.loc 6 544 1
	.syntax unified
@ 544 "../../../../../../components/softdevice/s132/headers/nrf_soc.h" 1
	svc #62
bx r14
@ 0 "" 2
	.thumb
	.syntax unified
	nop
	mov	r0, r3
.LFE250:
	.size	sd_power_gpregret_get, .-sd_power_gpregret_get
	.section	.text.sd_power_dcdc_mode_set,"ax",%progbits
	.align	1
	.syntax unified
	.thumb
	.thumb_func
	.type	sd_power_dcdc_mode_set, %function
sd_power_dcdc_mode_set:
.LFB251:
	.loc 6 553 1
	@ Naked Function: prologue and epilogue provided by programmer.
	@ args = 0, pretend = 0, frame = 0
	@ frame_needed = 0, uses_anonymous_args = 0
	.loc 6 553 1
	.syntax unified
@ 553 "../../../../../../components/softdevice/s132/headers/nrf_soc.h" 1
	svc #63
bx r14
@ 0 "" 2
	.thumb
	.syntax unified
	nop
	mov	r0, r3
.LFE251:
	.size	sd_power_dcdc_mode_set, .-sd_power_dcdc_mode_set
	.section	.text.sd_clock_hfclk_request,"ax",%progbits
	.align	1
	.syntax unified
	.thumb
	.thumb_func
	.type	sd_clock_hfclk_request, %function
sd_clock_hfclk_request:
.LFB252:
	.loc 6 566 1
	@ Naked Function: prologue and epilogue provided by programmer.
	@ args = 0, pretend = 0, frame = 0
	@ frame_needed = 0, uses_anonymous_args = 0
	.loc 6 566 1
	.syntax unified
@ 566 "../../../../../../components/softdevice/s132/headers/nrf_soc.h" 1
	svc #66
bx r14
@ 0 "" 2
	.thumb
	.syntax unified
	nop
	mov	r0, r3
.LFE252:
	.size	sd_clock_hfclk_request, .-sd_clock_hfclk_request
	.section	.text.sd_clock_hfclk_release,"ax",%progbits
	.align	1
	.syntax unified
	.thumb
	.thumb_func
	.type	sd_clock_hfclk_release, %function
sd_clock_hfclk_release:
.LFB253:
	.loc 6 577 1
	@ Naked Function: prologue and epilogue provided by programmer.
	@ args = 0, pretend = 0, frame = 0
	@ frame_needed = 0, uses_anonymous_args = 0
	.loc 6 577 1
	.syntax unified
@ 577 "../../../../../../components/softdevice/s132/headers/nrf_soc.h" 1
	svc #67
bx r14
@ 0 "" 2
	.thumb
	.syntax unified
	nop
	mov	r0, r3
.LFE253:
	.size	sd_clock_hfclk_release, .-sd_clock_hfclk_release
	.section	.text.sd_clock_hfclk_is_running,"ax",%progbits
	.align	1
	.syntax unified
	.thumb
	.thumb_func
	.type	sd_clock_hfclk_is_running, %function
sd_clock_hfclk_is_running:
.LFB254:
	.loc 6 588 1
	@ Naked Function: prologue and epilogue provided by programmer.
	@ args = 0, pretend = 0, frame = 0
	@ frame_needed = 0, uses_anonymous_args = 0
	.loc 6 588 1
	.syntax unified
@ 588 "../../../../../../components/softdevice/s132/headers/nrf_soc.h" 1
	svc #68
bx r14
@ 0 "" 2
	.thumb
	.syntax unified
	nop
	mov	r0, r3
.LFE254:
	.size	sd_clock_hfclk_is_running, .-sd_clock_hfclk_is_running
	.section	.text.sd_app_evt_wait,"ax",%progbits
	.align	1
	.syntax unified
	.thumb
	.thumb_func
	.type	sd_app_evt_wait, %function
sd_app_evt_wait:
.LFB255:
	.loc 6 616 1
	@ Naked Function: prologue and epilogue provided by programmer.
	@ args = 0, pretend = 0, frame = 0
	@ frame_needed = 0, uses_anonymous_args = 0
	.loc 6 616 1
	.syntax unified
@ 616 "../../../../../../components/softdevice/s132/headers/nrf_soc.h" 1
	svc #65
bx r14
@ 0 "" 2
	.thumb
	.syntax unified
	nop
	mov	r0, r3
.LFE255:
	.size	sd_app_evt_wait, .-sd_app_evt_wait
	.section	.text.sd_ppi_channel_enable_get,"ax",%progbits
	.align	1
	.syntax unified
	.thumb
	.thumb_func
	.type	sd_ppi_channel_enable_get, %function
sd_ppi_channel_enable_get:
.LFB256:
	.loc 6 624 1
	@ Naked Function: prologue and epilogue provided by programmer.
	@ args = 0, pretend = 0, frame = 0
	@ frame_needed = 0, uses_anonymous_args = 0
	.loc 6 624 1
	.syntax unified
@ 624 "../../../../../../components/softdevice/s132/headers/nrf_soc.h" 1
	svc #32
bx r14
@ 0 "" 2
	.thumb
	.syntax unified
	nop
	mov	r0, r3
.LFE256:
	.size	sd_ppi_channel_enable_get, .-sd_ppi_channel_enable_get
	.section	.text.sd_ppi_channel_enable_set,"ax",%progbits
	.align	1
	.syntax unified
	.thumb
	.thumb_func
	.type	sd_ppi_channel_enable_set, %function
sd_ppi_channel_enable_set:
.LFB257:
	.loc 6 632 1
	@ Naked Function: prologue and epilogue provided by programmer.
	@ args = 0, pretend = 0, frame = 0
	@ frame_needed = 0, uses_anonymous_args = 0
	.loc 6 632 1
	.syntax unified
@ 632 "../../../../../../components/softdevice/s132/headers/nrf_soc.h" 1
	svc #33
bx r14
@ 0 "" 2
	.thumb
	.syntax unified
	nop
	mov	r0, r3
.LFE257:
	.size	sd_ppi_channel_enable_set, .-sd_ppi_channel_enable_set
	.section	.text.sd_ppi_channel_enable_clr,"ax",%progbits
	.align	1
	.syntax unified
	.thumb
	.thumb_func
	.type	sd_ppi_channel_enable_clr, %function
sd_ppi_channel_enable_clr:
.LFB258:
	.loc 6 640 1
	@ Naked Function: prologue and epilogue provided by programmer.
	@ args = 0, pretend = 0, frame = 0
	@ frame_needed = 0, uses_anonymous_args = 0
	.loc 6 640 1
	.syntax unified
@ 640 "../../../../../../components/softdevice/s132/headers/nrf_soc.h" 1
	svc #34
bx r14
@ 0 "" 2
	.thumb
	.syntax unified
	nop
	mov	r0, r3
.LFE258:
	.size	sd_ppi_channel_enable_clr, .-sd_ppi_channel_enable_clr
	.section	.text.sd_ppi_channel_assign,"ax",%progbits
	.align	1
	.syntax unified
	.thumb
	.thumb_func
	.type	sd_ppi_channel_assign, %function
sd_ppi_channel_assign:
.LFB259:
	.loc 6 651 1
	@ Naked Function: prologue and epilogue provided by programmer.
	@ args = 0, pretend = 0, frame = 0
	@ frame_needed = 0, uses_anonymous_args = 0
	.loc 6 651 1
	.syntax unified
@ 651 "../../../../../../components/softdevice/s132/headers/nrf_soc.h" 1
	svc #35
bx r14
@ 0 "" 2
	.thumb
	.syntax unified
	nop
	mov	r0, r3
.LFE259:
	.size	sd_ppi_channel_assign, .-sd_ppi_channel_assign
	.section	.text.sd_ppi_group_task_enable,"ax",%progbits
	.align	1
	.syntax unified
	.thumb
	.thumb_func
	.type	sd_ppi_group_task_enable, %function
sd_ppi_group_task_enable:
.LFB260:
	.loc 6 660 1
	@ Naked Function: prologue and epilogue provided by programmer.
	@ args = 0, pretend = 0, frame = 0
	@ frame_needed = 0, uses_anonymous_args = 0
	.loc 6 660 1
	.syntax unified
@ 660 "../../../../../../components/softdevice/s132/headers/nrf_soc.h" 1
	svc #36
bx r14
@ 0 "" 2
	.thumb
	.syntax unified
	nop
	mov	r0, r3
.LFE260:
	.size	sd_ppi_group_task_enable, .-sd_ppi_group_task_enable
	.section	.text.sd_ppi_group_task_disable,"ax",%progbits
	.align	1
	.syntax unified
	.thumb
	.thumb_func
	.type	sd_ppi_group_task_disable, %function
sd_ppi_group_task_disable:
.LFB261:
	.loc 6 669 1
	@ Naked Function: prologue and epilogue provided by programmer.
	@ args = 0, pretend = 0, frame = 0
	@ frame_needed = 0, uses_anonymous_args = 0
	.loc 6 669 1
	.syntax unified
@ 669 "../../../../../../components/softdevice/s132/headers/nrf_soc.h" 1
	svc #37
bx r14
@ 0 "" 2
	.thumb
	.syntax unified
	nop
	mov	r0, r3
.LFE261:
	.size	sd_ppi_group_task_disable, .-sd_ppi_group_task_disable
	.section	.text.sd_ppi_group_assign,"ax",%progbits
	.align	1
	.syntax unified
	.thumb
	.thumb_func
	.type	sd_ppi_group_assign, %function
sd_ppi_group_assign:
.LFB262:
	.loc 6 679 1
	@ Naked Function: prologue and epilogue provided by programmer.
	@ args = 0, pretend = 0, frame = 0
	@ frame_needed = 0, uses_anonymous_args = 0
	.loc 6 679 1
	.syntax unified
@ 679 "../../../../../../components/softdevice/s132/headers/nrf_soc.h" 1
	svc #38
bx r14
@ 0 "" 2
	.thumb
	.syntax unified
	nop
	mov	r0, r3
.LFE262:
	.size	sd_ppi_group_assign, .-sd_ppi_group_assign
	.section	.text.sd_ppi_group_get,"ax",%progbits
	.align	1
	.syntax unified
	.thumb
	.thumb_func
	.type	sd_ppi_group_get, %function
sd_ppi_group_get:
.LFB263:
	.loc 6 689 1
	@ Naked Function: prologue and epilogue provided by programmer.
	@ args = 0, pretend = 0, frame = 0
	@ frame_needed = 0, uses_anonymous_args = 0
	.loc 6 689 1
	.syntax unified
@ 689 "../../../../../../components/softdevice/s132/headers/nrf_soc.h" 1
	svc #39
bx r14
@ 0 "" 2
	.thumb
	.syntax unified
	nop
	mov	r0, r3
.LFE263:
	.size	sd_ppi_group_get, .-sd_ppi_group_get
	.section	.text.sd_radio_notification_cfg_set,"ax",%progbits
	.align	1
	.syntax unified
	.thumb
	.thumb_func
	.type	sd_radio_notification_cfg_set, %function
sd_radio_notification_cfg_set:
.LFB264:
	.loc 6 720 1
	@ Naked Function: prologue and epilogue provided by programmer.
	@ args = 0, pretend = 0, frame = 0
	@ frame_needed = 0, uses_anonymous_args = 0
	.loc 6 720 1
	.syntax unified
@ 720 "../../../../../../components/softdevice/s132/headers/nrf_soc.h" 1
	svc #69
bx r14
@ 0 "" 2
	.thumb
	.syntax unified
	nop
	mov	r0, r3
.LFE264:
	.size	sd_radio_notification_cfg_set, .-sd_radio_notification_cfg_set
	.section	.text.sd_ecb_block_encrypt,"ax",%progbits
	.align	1
	.syntax unified
	.thumb
	.thumb_func
	.type	sd_ecb_block_encrypt, %function
sd_ecb_block_encrypt:
.LFB265:
	.loc 6 736 1
	@ Naked Function: prologue and epilogue provided by programmer.
	@ args = 0, pretend = 0, frame = 0
	@ frame_needed = 0, uses_anonymous_args = 0
	.loc 6 736 1
	.syntax unified
@ 736 "../../../../../../components/softdevice/s132/headers/nrf_soc.h" 1
	svc #70
bx r14
@ 0 "" 2
	.thumb
	.syntax unified
	nop
	mov	r0, r3
.LFE265:
	.size	sd_ecb_block_encrypt, .-sd_ecb_block_encrypt
	.section	.text.sd_ecb_blocks_encrypt,"ax",%progbits
	.align	1
	.syntax unified
	.thumb
	.thumb_func
	.type	sd_ecb_blocks_encrypt, %function
sd_ecb_blocks_encrypt:
.LFB266:
	.loc 6 753 1
	@ Naked Function: prologue and epilogue provided by programmer.
	@ args = 0, pretend = 0, frame = 0
	@ frame_needed = 0, uses_anonymous_args = 0
	.loc 6 753 1
	.syntax unified
@ 753 "../../../../../../components/softdevice/s132/headers/nrf_soc.h" 1
	svc #71
bx r14
@ 0 "" 2
	.thumb
	.syntax unified
	nop
	mov	r0, r3
.LFE266:
	.size	sd_ecb_blocks_encrypt, .-sd_ecb_blocks_encrypt
	.section	.text.sd_evt_get,"ax",%progbits
	.align	1
	.syntax unified
	.thumb
	.thumb_func
	.type	sd_evt_get, %function
sd_evt_get:
.LFB267:
	.loc 6 764 1
	@ Naked Function: prologue and epilogue provided by programmer.
	@ args = 0, pretend = 0, frame = 0
	@ frame_needed = 0, uses_anonymous_args = 0
	.loc 6 764 1
	.syntax unified
@ 764 "../../../../../../components/softdevice/s132/headers/nrf_soc.h" 1
	svc #75
bx r14
@ 0 "" 2
	.thumb
	.syntax unified
	nop
	mov	r0, r3
.LFE267:
	.size	sd_evt_get, .-sd_evt_get
	.section	.text.sd_temp_get,"ax",%progbits
	.align	1
	.syntax unified
	.thumb
	.thumb_func
	.type	sd_temp_get, %function
sd_temp_get:
.LFB268:
	.loc 6 775 1
	@ Naked Function: prologue and epilogue provided by programmer.
	@ args = 0, pretend = 0, frame = 0
	@ frame_needed = 0, uses_anonymous_args = 0
	.loc 6 775 1
	.syntax unified
@ 775 "../../../../../../components/softdevice/s132/headers/nrf_soc.h" 1
	svc #76
bx r14
@ 0 "" 2
	.thumb
	.syntax unified
	nop
	mov	r0, r3
.LFE268:
	.size	sd_temp_get, .-sd_temp_get
	.section	.text.sd_flash_write,"ax",%progbits
	.align	1
	.syntax unified
	.thumb
	.thumb_func
	.type	sd_flash_write, %function
sd_flash_write:
.LFB269:
	.loc 6 812 1
	@ Naked Function: prologue and epilogue provided by programmer.
	@ args = 0, pretend = 0, frame = 0
	@ frame_needed = 0, uses_anonymous_args = 0
	.loc 6 812 1
	.syntax unified
@ 812 "../../../../../../components/softdevice/s132/headers/nrf_soc.h" 1
	svc #41
bx r14
@ 0 "" 2
	.thumb
	.syntax unified
	nop
	mov	r0, r3
.LFE269:
	.size	sd_flash_write, .-sd_flash_write
	.section	.text.sd_flash_page_erase,"ax",%progbits
	.align	1
	.syntax unified
	.thumb
	.thumb_func
	.type	sd_flash_page_erase, %function
sd_flash_page_erase:
.LFB270:
	.loc 6 844 1
	@ Naked Function: prologue and epilogue provided by programmer.
	@ args = 0, pretend = 0, frame = 0
	@ frame_needed = 0, uses_anonymous_args = 0
	.loc 6 844 1
	.syntax unified
@ 844 "../../../../../../components/softdevice/s132/headers/nrf_soc.h" 1
	svc #40
bx r14
@ 0 "" 2
	.thumb
	.syntax unified
	nop
	mov	r0, r3
.LFE270:
	.size	sd_flash_page_erase, .-sd_flash_page_erase
	.section	.text.sd_flash_protect,"ax",%progbits
	.align	1
	.syntax unified
	.thumb
	.thumb_func
	.type	sd_flash_protect, %function
sd_flash_protect:
.LFB271:
	.loc 6 867 1
	@ Naked Function: prologue and epilogue provided by programmer.
	@ args = 0, pretend = 0, frame = 0
	@ frame_needed = 0, uses_anonymous_args = 0
	.loc 6 867 1
	.syntax unified
@ 867 "../../../../../../components/softdevice/s132/headers/nrf_soc.h" 1
	svc #42
bx r14
@ 0 "" 2
	.thumb
	.syntax unified
	nop
	mov	r0, r3
.LFE271:
	.size	sd_flash_protect, .-sd_flash_protect
	.section	.text.sd_radio_session_open,"ax",%progbits
	.align	1
	.syntax unified
	.thumb
	.thumb_func
	.type	sd_radio_session_open, %function
sd_radio_session_open:
.LFB272:
	.loc 6 889 2
	@ Naked Function: prologue and epilogue provided by programmer.
	@ args = 0, pretend = 0, frame = 0
	@ frame_needed = 0, uses_anonymous_args = 0
	.loc 6 889 2
	.syntax unified
@ 889 "../../../../../../components/softdevice/s132/headers/nrf_soc.h" 1
	svc #72
bx r14
@ 0 "" 2
	.thumb
	.syntax unified
	nop
	mov	r0, r3
.LFE272:
	.size	sd_radio_session_open, .-sd_radio_session_open
	.section	.text.sd_radio_session_close,"ax",%progbits
	.align	1
	.syntax unified
	.thumb
	.thumb_func
	.type	sd_radio_session_close, %function
sd_radio_session_close:
.LFB273:
	.loc 6 902 2
	@ Naked Function: prologue and epilogue provided by programmer.
	@ args = 0, pretend = 0, frame = 0
	@ frame_needed = 0, uses_anonymous_args = 0
	.loc 6 902 2
	.syntax unified
@ 902 "../../../../../../components/softdevice/s132/headers/nrf_soc.h" 1
	svc #73
bx r14
@ 0 "" 2
	.thumb
	.syntax unified
	nop
	mov	r0, r3
.LFE273:
	.size	sd_radio_session_close, .-sd_radio_session_close
	.section	.text.sd_radio_request,"ax",%progbits
	.align	1
	.syntax unified
	.thumb
	.thumb_func
	.type	sd_radio_request, %function
sd_radio_request:
.LFB274:
	.loc 6 934 2
	@ Naked Function: prologue and epilogue provided by programmer.
	@ args = 0, pretend = 0, frame = 0
	@ frame_needed = 0, uses_anonymous_args = 0
	.loc 6 934 2
	.syntax unified
@ 934 "../../../../../../components/softdevice/s132/headers/nrf_soc.h" 1
	svc #74
bx r14
@ 0 "" 2
	.thumb
	.syntax unified
	nop
	mov	r0, r3
.LFE274:
	.size	sd_radio_request, .-sd_radio_request
	.section	.text.sd_protected_register_write,"ax",%progbits
	.align	1
	.syntax unified
	.thumb
	.thumb_func
	.type	sd_protected_register_write, %function
sd_protected_register_write:
.LFB275:
	.loc 6 955 1
	@ Naked Function: prologue and epilogue provided by programmer.
	@ args = 0, pretend = 0, frame = 0
	@ frame_needed = 0, uses_anonymous_args = 0
	.loc 6 955 1
	.syntax unified
@ 955 "../../../../../../components/softdevice/s132/headers/nrf_soc.h" 1
	svc #43
bx r14
@ 0 "" 2
	.thumb
	.syntax unified
	nop
	mov	r0, r3
.LFE275:
	.size	sd_protected_register_write, .-sd_protected_register_write
	.section	.data.m_evt_handlers,"aw"
	.align	2
	.type	m_evt_handlers, %object
	.size	m_evt_handlers, 4
m_evt_handlers:
	.word	pm_gcm_evt_handler
	.section	.bss.m_module_initialized,"aw",%nobits
	.type	m_module_initialized, %object
	.size	m_module_initialized, 1
m_module_initialized:
	.space	1
	.section	.bss.m_db_update_in_progress_mutex,"aw",%nobits
	.type	m_db_update_in_progress_mutex, %object
	.size	m_db_update_in_progress_mutex, 1
m_db_update_in_progress_mutex:
	.space	1
	.section	.bss.m_flag_local_db_update_pending,"aw",%nobits
	.type	m_flag_local_db_update_pending, %object
	.size	m_flag_local_db_update_pending, 1
m_flag_local_db_update_pending:
	.space	1
	.section	.bss.m_flag_local_db_apply_pending,"aw",%nobits
	.type	m_flag_local_db_apply_pending, %object
	.size	m_flag_local_db_apply_pending, 1
m_flag_local_db_apply_pending:
	.space	1
	.section	.bss.m_flag_service_changed_pending,"aw",%nobits
	.type	m_flag_service_changed_pending, %object
	.size	m_flag_service_changed_pending, 1
m_flag_service_changed_pending:
	.space	1
	.section	.bss.m_flag_service_changed_sent,"aw",%nobits
	.type	m_flag_service_changed_sent, %object
	.size	m_flag_service_changed_sent, 1
m_flag_service_changed_sent:
	.space	1
	.section	.text.internal_state_reset,"ax",%progbits
	.align	1
	.syntax unified
	.thumb
	.thumb_func
	.type	internal_state_reset, %function
internal_state_reset:
.LFB290:
	.file 7 "/Users/waewtasaw/Desktop/ECE_477/v2_latest/Repeat-Rover/firmware/firmware_sdk/components/ble/peer_manager/gatt_cache_manager.c"
	.loc 7 87 1
	@ args = 0, pretend = 0, frame = 0
	@ frame_needed = 0, uses_anonymous_args = 0
	@ link register save eliminated.
	.loc 7 88 26
	ldr	r3, .L124
	movs	r2, #0
	strb	r2, [r3]
	.loc 7 89 1
	nop
	bx	lr
.L125:
	.align	2
.L124:
	.word	m_module_initialized
.LFE290:
	.size	internal_state_reset, .-internal_state_reset
	.section	.text.evt_send,"ax",%progbits
	.align	1
	.syntax unified
	.thumb
	.thumb_func
	.type	evt_send, %function
evt_send:
.LFB291:
	.loc 7 93 1
	@ args = 0, pretend = 0, frame = 16
	@ frame_needed = 0, uses_anonymous_args = 0
	push	{lr}
.LCFI0:
	sub	sp, sp, #20
.LCFI1:
	str	r0, [sp, #4]
	.loc 7 94 26
	ldr	r3, [sp, #4]
	ldrh	r3, [r3, #2]
	mov	r0, r3
	bl	im_peer_id_get_by_conn_handle
	mov	r3, r0
	mov	r2, r3
	.loc 7 94 24
	ldr	r3, [sp, #4]
	strh	r2, [r3, #4]	@ movhi
.LBB2:
	.loc 7 96 19
	movs	r3, #0
	str	r3, [sp, #12]
	.loc 7 96 5
	b	.L127
.L128:
	.loc 7 98 23 discriminator 3
	ldr	r2, .L129
	ldr	r3, [sp, #12]
	ldr	r3, [r2, r3, lsl #2]
	.loc 7 98 9 discriminator 3
	ldr	r0, [sp, #4]
	blx	r3
.LVL0:
	.loc 7 96 55 discriminator 3
	ldr	r3, [sp, #12]
	adds	r3, r3, #1
	str	r3, [sp, #12]
.L127:
	.loc 7 96 28 discriminator 1
	ldr	r3, [sp, #12]
	cmp	r3, #0
	beq	.L128
.LBE2:
	.loc 7 100 1
	nop
	nop
	add	sp, sp, #20
.LCFI2:
	@ sp needed
	ldr	pc, [sp], #4
.L130:
	.align	2
.L129:
	.word	m_evt_handlers
.LFE291:
	.size	evt_send, .-evt_send
	.section	.text.cccd_written,"ax",%progbits
	.align	1
	.syntax unified
	.thumb
	.thumb_func
	.type	cccd_written, %function
cccd_written:
.LFB292:
	.loc 7 111 1
	@ args = 0, pretend = 0, frame = 8
	@ frame_needed = 0, uses_anonymous_args = 0
	@ link register save eliminated.
	sub	sp, sp, #8
.LCFI3:
	str	r0, [sp, #4]
	.loc 7 112 29
	ldr	r3, [sp, #4]
	ldrb	r3, [r3, #6]	@ zero_extendqisi2
	.loc 7 114 14
	cmp	r3, #1
	bne	.L132
	.loc 7 113 35
	ldr	r3, [sp, #4]
	ldrb	r3, [r3, #4]	@ zero_extendqisi2
	.loc 7 113 14
	cmp	r3, #1
	bne	.L132
	.loc 7 114 35 discriminator 3
	ldr	r3, [sp, #4]
	ldrh	r3, [r3, #2]
	.loc 7 114 14 discriminator 3
	movw	r2, #10498
	cmp	r3, r2
	bne	.L132
	.loc 7 114 14 is_stmt 0 discriminator 2
	movs	r3, #1
	b	.L133
.L132:
	.loc 7 114 14 discriminator 1
	movs	r3, #0
.L133:
	.loc 7 114 14 discriminator 5
	and	r3, r3, #1
	uxtb	r3, r3
	.loc 7 116 1 is_stmt 1 discriminator 5
	mov	r0, r3
	add	sp, sp, #8
.LCFI4:
	@ sp needed
	bx	lr
.LFE292:
	.size	cccd_written, .-cccd_written
	.section	.text.send_unexpected_error,"ax",%progbits
	.align	1
	.syntax unified
	.thumb
	.thumb_func
	.type	send_unexpected_error, %function
send_unexpected_error:
.LFB293:
	.loc 7 125 1
	@ args = 0, pretend = 0, frame = 32
	@ frame_needed = 0, uses_anonymous_args = 0
	push	{lr}
.LCFI5:
	sub	sp, sp, #36
.LCFI6:
	mov	r3, r0
	str	r1, [sp]
	strh	r3, [sp, #6]	@ movhi
	.loc 7 126 14
	add	r3, sp, #12
	movs	r2, #0
	str	r2, [r3]
	str	r2, [r3, #4]
	str	r2, [r3, #8]
	str	r2, [r3, #12]
	str	r2, [r3, #16]
	movs	r3, #7
	strb	r3, [sp, #12]
	ldrh	r3, [sp, #6]	@ movhi
	strh	r3, [sp, #14]	@ movhi
	ldr	r3, [sp]
	str	r3, [sp, #20]
	.loc 7 138 5
	add	r3, sp, #12
	mov	r0, r3
	bl	evt_send
	.loc 7 139 1
	nop
	add	sp, sp, #36
.LCFI7:
	@ sp needed
	ldr	pc, [sp], #4
.LFE293:
	.size	send_unexpected_error, .-send_unexpected_error
	.section	.text.local_db_apply_in_evt,"ax",%progbits
	.align	1
	.syntax unified
	.thumb
	.thumb_func
	.type	local_db_apply_in_evt, %function
local_db_apply_in_evt:
.LFB294:
	.loc 7 151 1
	@ args = 0, pretend = 0, frame = 40
	@ frame_needed = 0, uses_anonymous_args = 0
	push	{lr}
.LCFI8:
	sub	sp, sp, #44
.LCFI9:
	mov	r3, r0
	strh	r3, [sp, #6]	@ movhi
	.loc 7 152 10
	movs	r3, #0
	strb	r3, [sp, #39]
	.loc 7 154 14
	add	r3, sp, #12
	movs	r2, #0
	str	r2, [r3]
	str	r2, [r3, #4]
	str	r2, [r3, #8]
	str	r2, [r3, #12]
	str	r2, [r3, #16]
	ldrh	r3, [sp, #6]	@ movhi
	strh	r3, [sp, #14]	@ movhi
	.loc 7 159 8
	ldrh	r3, [sp, #6]
	movw	r2, #65535
	cmp	r3, r2
	beq	.L145
	.loc 7 164 16
	ldrh	r3, [sp, #6]
	mov	r0, r3
	bl	gscm_local_db_cache_apply
	str	r0, [sp, #32]
	.loc 7 166 5
	ldr	r3, [sp, #32]
	movw	r2, #12290
	cmp	r3, r2
	beq	.L146
	ldr	r3, [sp, #32]
	movw	r2, #12290
	cmp	r3, r2
	bhi	.L140
	ldr	r3, [sp, #32]
	cmp	r3, #17
	beq	.L141
	ldr	r3, [sp, #32]
	cmp	r3, #17
	bhi	.L140
	ldr	r3, [sp, #32]
	cmp	r3, #0
	beq	.L142
	ldr	r3, [sp, #32]
	cmp	r3, #11
	beq	.L143
	b	.L140
.L142:
	.loc 7 169 26
	movs	r3, #14
	strb	r3, [sp, #12]
	.loc 7 171 13
	add	r3, sp, #12
	mov	r0, r3
	bl	evt_send
	.loc 7 172 13
	b	.L144
.L141:
	.loc 7 175 38
	movs	r3, #1
	strb	r3, [sp, #39]
	.loc 7 176 13
	b	.L144
.L143:
	.loc 7 179 26
	movs	r3, #15
	strb	r3, [sp, #12]
	.loc 7 181 13
	add	r3, sp, #12
	mov	r0, r3
	bl	evt_send
	.loc 7 182 13
	b	.L144
.L140:
	.loc 7 189 13
	ldrh	r3, [sp, #6]
	ldr	r1, [sp, #32]
	mov	r0, r3
	bl	send_unexpected_error
	.loc 7 190 13
	b	.L144
.L146:
	.loc 7 186 13
	nop
.L144:
	.loc 7 193 5
	ldr	r3, .L147
	ldrb	r1, [r3]	@ zero_extendqisi2
	ldrb	r2, [sp, #3